
/home/enio/Projects/ChiliChips/wireguard-fpga/3.build/sw_build/main.elf:     file format elf32-littleriscv


Disassembly of section .text:

00000000 <_boot_crt>:
       0:	00007517          	auipc	a0,0x7
       4:	9cc50513          	addi	a0,a0,-1588 # 69cc <_idata_start>
       8:	10000597          	auipc	a1,0x10000
       c:	ff858593          	addi	a1,a1,-8 # 10000000 <net_config>
      10:	10000617          	auipc	a2,0x10000
      14:	ff060613          	addi	a2,a2,-16 # 10000000 <net_config>
      18:	00c5dc63          	bge	a1,a2,30 <end_copy_idata>

0000001c <loop_copy_idata>:
      1c:	00052683          	lw	a3,0(a0)
      20:	00d5a023          	sw	a3,0(a1)
      24:	00450513          	addi	a0,a0,4
      28:	00458593          	addi	a1,a1,4
      2c:	fec5c8e3          	blt	a1,a2,1c <loop_copy_idata>

00000030 <end_copy_idata>:
      30:	10000517          	auipc	a0,0x10000
      34:	fd050513          	addi	a0,a0,-48 # 10000000 <net_config>
      38:	10009597          	auipc	a1,0x10009
      3c:	bf058593          	addi	a1,a1,-1040 # 10008c28 <_bss_end>
      40:	00b55863          	bge	a0,a1,50 <end_clear_bss>

00000044 <loop_clear_bss>:
      44:	00052023          	sw	zero,0(a0)
      48:	00450513          	addi	a0,a0,4
      4c:	feb54ce3          	blt	a0,a1,44 <loop_clear_bss>

00000050 <end_clear_bss>:
      50:	10010117          	auipc	sp,0x10010
      54:	fb010113          	addi	sp,sp,-80 # 10010000 <_stack_start>
      58:	10000197          	auipc	gp,0x10000
      5c:	7a818193          	addi	gp,gp,1960 # 10000800 <__global_pointer$>
      60:	00a54533          	xor	a0,a0,a0
      64:	00b5c5b3          	xor	a1,a1,a1
      68:	00c64633          	xor	a2,a2,a2
      6c:	010030ef          	jal	307c <main>

00000070 <loop_forever>:
      70:	0000006f          	j	70 <loop_forever>

00000074 <uart_send_char>:
      74:	00452783          	lw	a5,4(a0)
      78:	0087a783          	lw	a5,8(a5)
      7c:	0007a783          	lw	a5,0(a5)
      80:	0007a783          	lw	a5,0(a5)
      84:	fe07c8e3          	bltz	a5,74 <uart_send_char>
      88:	00452783          	lw	a5,4(a0)
      8c:	0087a783          	lw	a5,8(a5)
      90:	0007a783          	lw	a5,0(a5)
      94:	00b78023          	sb	a1,0(a5)
      98:	00008067          	ret

0000009c <uart_send_hex>:
      9c:	fe010113          	addi	sp,sp,-32
      a0:	00812c23          	sw	s0,24(sp)
      a4:	01212823          	sw	s2,16(sp)
      a8:	fff60413          	addi	s0,a2,-1
      ac:	00006937          	lui	s2,0x6
      b0:	00912a23          	sw	s1,20(sp)
      b4:	01312623          	sw	s3,12(sp)
      b8:	00112e23          	sw	ra,28(sp)
      bc:	00050493          	mv	s1,a0
      c0:	00058993          	mv	s3,a1
      c4:	00241413          	slli	s0,s0,0x2
      c8:	87890913          	addi	s2,s2,-1928 # 5878 <__modsi3+0x30>
      cc:	0089d7b3          	srl	a5,s3,s0
      d0:	00f7f793          	andi	a5,a5,15
      d4:	00f907b3          	add	a5,s2,a5
      d8:	0007c583          	lbu	a1,0(a5)
      dc:	00048513          	mv	a0,s1
      e0:	ffc40413          	addi	s0,s0,-4
      e4:	f91ff0ef          	jal	74 <uart_send_char>
      e8:	fe0452e3          	bgez	s0,cc <uart_send_hex+0x30>
      ec:	01c12083          	lw	ra,28(sp)
      f0:	01812403          	lw	s0,24(sp)
      f4:	01412483          	lw	s1,20(sp)
      f8:	01012903          	lw	s2,16(sp)
      fc:	00c12983          	lw	s3,12(sp)
     100:	02010113          	addi	sp,sp,32
     104:	00008067          	ret

00000108 <uart_send_dec>:
     108:	0a058263          	beqz	a1,1ac <uart_send_dec+0xa4>
     10c:	fe010113          	addi	sp,sp,-32
     110:	00912a23          	sw	s1,20(sp)
     114:	00058493          	mv	s1,a1
     118:	01212823          	sw	s2,16(sp)
     11c:	00a00593          	li	a1,10
     120:	00050913          	mv	s2,a0
     124:	00048513          	mv	a0,s1
     128:	00812c23          	sw	s0,24(sp)
     12c:	00112e23          	sw	ra,28(sp)
     130:	01312623          	sw	s3,12(sp)
     134:	01412423          	sw	s4,8(sp)
     138:	00100413          	li	s0,1
     13c:	690050ef          	jal	57cc <__hidden___udivsi3>
     140:	06857a63          	bgeu	a0,s0,1b4 <uart_send_dec+0xac>
     144:	00900a13          	li	s4,9
     148:	00040593          	mv	a1,s0
     14c:	00048513          	mv	a0,s1
     150:	67c050ef          	jal	57cc <__hidden___udivsi3>
     154:	03050593          	addi	a1,a0,48
     158:	0ff5f593          	zext.b	a1,a1
     15c:	00090513          	mv	a0,s2
     160:	f15ff0ef          	jal	74 <uart_send_char>
     164:	00040593          	mv	a1,s0
     168:	00048513          	mv	a0,s1
     16c:	6a8050ef          	jal	5814 <__umodsi3>
     170:	00050493          	mv	s1,a0
     174:	00a00593          	li	a1,10
     178:	00040513          	mv	a0,s0
     17c:	00040993          	mv	s3,s0
     180:	64c050ef          	jal	57cc <__hidden___udivsi3>
     184:	00050413          	mv	s0,a0
     188:	fd3a60e3          	bltu	s4,s3,148 <uart_send_dec+0x40>
     18c:	01c12083          	lw	ra,28(sp)
     190:	01812403          	lw	s0,24(sp)
     194:	01412483          	lw	s1,20(sp)
     198:	01012903          	lw	s2,16(sp)
     19c:	00c12983          	lw	s3,12(sp)
     1a0:	00812a03          	lw	s4,8(sp)
     1a4:	02010113          	addi	sp,sp,32
     1a8:	00008067          	ret
     1ac:	03000593          	li	a1,48
     1b0:	ec5ff06f          	j	74 <uart_send_char>
     1b4:	00241793          	slli	a5,s0,0x2
     1b8:	00878433          	add	s0,a5,s0
     1bc:	00141413          	slli	s0,s0,0x1
     1c0:	f81ff06f          	j	140 <uart_send_dec+0x38>

000001c4 <uart_send>:
     1c4:	ff010113          	addi	sp,sp,-16
     1c8:	00812423          	sw	s0,8(sp)
     1cc:	00912223          	sw	s1,4(sp)
     1d0:	00112623          	sw	ra,12(sp)
     1d4:	00050493          	mv	s1,a0
     1d8:	00058413          	mv	s0,a1
     1dc:	00044583          	lbu	a1,0(s0)
     1e0:	00059c63          	bnez	a1,1f8 <uart_send+0x34>
     1e4:	00c12083          	lw	ra,12(sp)
     1e8:	00812403          	lw	s0,8(sp)
     1ec:	00412483          	lw	s1,4(sp)
     1f0:	01010113          	addi	sp,sp,16
     1f4:	00008067          	ret
     1f8:	00048513          	mv	a0,s1
     1fc:	00140413          	addi	s0,s0,1
     200:	e75ff0ef          	jal	74 <uart_send_char>
     204:	fd9ff06f          	j	1dc <uart_send+0x18>

00000208 <uart_send_ip>:
     208:	ff010113          	addi	sp,sp,-16
     20c:	00112623          	sw	ra,12(sp)
     210:	00812423          	sw	s0,8(sp)
     214:	00912223          	sw	s1,4(sp)
     218:	00058493          	mv	s1,a1
     21c:	0005c583          	lbu	a1,0(a1)
     220:	00050413          	mv	s0,a0
     224:	ee5ff0ef          	jal	108 <uart_send_dec>
     228:	00040513          	mv	a0,s0
     22c:	02e00593          	li	a1,46
     230:	e45ff0ef          	jal	74 <uart_send_char>
     234:	0014c583          	lbu	a1,1(s1)
     238:	00040513          	mv	a0,s0
     23c:	ecdff0ef          	jal	108 <uart_send_dec>
     240:	00040513          	mv	a0,s0
     244:	02e00593          	li	a1,46
     248:	e2dff0ef          	jal	74 <uart_send_char>
     24c:	0024c583          	lbu	a1,2(s1)
     250:	00040513          	mv	a0,s0
     254:	eb5ff0ef          	jal	108 <uart_send_dec>
     258:	00040513          	mv	a0,s0
     25c:	02e00593          	li	a1,46
     260:	e15ff0ef          	jal	74 <uart_send_char>
     264:	00040513          	mv	a0,s0
     268:	00812403          	lw	s0,8(sp)
     26c:	0034c583          	lbu	a1,3(s1)
     270:	00c12083          	lw	ra,12(sp)
     274:	00412483          	lw	s1,4(sp)
     278:	01010113          	addi	sp,sp,16
     27c:	e8dff06f          	j	108 <uart_send_dec>

00000280 <uart_recv>:
     280:	00452783          	lw	a5,4(a0)
     284:	0007a783          	lw	a5,0(a5)
     288:	0007a783          	lw	a5,0(a5)
     28c:	0007a783          	lw	a5,0(a5)
     290:	1407d863          	bgez	a5,3e0 <uart_recv+0x160>
     294:	fd010113          	addi	sp,sp,-48
     298:	03212023          	sw	s2,32(sp)
     29c:	02112623          	sw	ra,44(sp)
     2a0:	02812423          	sw	s0,40(sp)
     2a4:	02912223          	sw	s1,36(sp)
     2a8:	01312e23          	sw	s3,28(sp)
     2ac:	01412c23          	sw	s4,24(sp)
     2b0:	01512a23          	sw	s5,20(sp)
     2b4:	01612823          	sw	s6,16(sp)
     2b8:	01712623          	sw	s7,12(sp)
     2bc:	0ff7f713          	zext.b	a4,a5
     2c0:	01200693          	li	a3,18
     2c4:	00050913          	mv	s2,a0
     2c8:	00000513          	li	a0,0
     2cc:	0ad70263          	beq	a4,a3,370 <uart_recv+0xf0>
     2d0:	00058493          	mv	s1,a1
     2d4:	0ff7f593          	zext.b	a1,a5
     2d8:	00b48023          	sb	a1,0(s1)
     2dc:	00a00793          	li	a5,10
     2e0:	0af58e63          	beq	a1,a5,39c <uart_recv+0x11c>
     2e4:	00d00793          	li	a5,13
     2e8:	00000413          	li	s0,0
     2ec:	0af58e63          	beq	a1,a5,3a8 <uart_recv+0x128>
     2f0:	00800a13          	li	s4,8
     2f4:	07f00a93          	li	s5,127
     2f8:	01f00993          	li	s3,31
     2fc:	00a00b13          	li	s6,10
     300:	00d00b93          	li	s7,13
     304:	01458463          	beq	a1,s4,30c <uart_recv+0x8c>
     308:	0d559263          	bne	a1,s5,3cc <uart_recv+0x14c>
     30c:	02805863          	blez	s0,33c <uart_recv+0xbc>
     310:	00800593          	li	a1,8
     314:	00090513          	mv	a0,s2
     318:	d5dff0ef          	jal	74 <uart_send_char>
     31c:	02000593          	li	a1,32
     320:	00090513          	mv	a0,s2
     324:	d51ff0ef          	jal	74 <uart_send_char>
     328:	00800593          	li	a1,8
     32c:	00090513          	mv	a0,s2
     330:	fff48493          	addi	s1,s1,-1
     334:	fff40413          	addi	s0,s0,-1
     338:	d3dff0ef          	jal	74 <uart_send_char>
     33c:	00492783          	lw	a5,4(s2)
     340:	0007a783          	lw	a5,0(a5)
     344:	0007a783          	lw	a5,0(a5)
     348:	0007a783          	lw	a5,0(a5)
     34c:	fe07d8e3          	bgez	a5,33c <uart_recv+0xbc>
     350:	01340c63          	beq	s0,s3,368 <uart_recv+0xe8>
     354:	0ff7f593          	zext.b	a1,a5
     358:	00b48023          	sb	a1,0(s1)
     35c:	05659463          	bne	a1,s6,3a4 <uart_recv+0x124>
     360:	00148493          	addi	s1,s1,1
     364:	00140413          	addi	s0,s0,1
     368:	00048023          	sb	zero,0(s1)
     36c:	0ff47513          	zext.b	a0,s0
     370:	02c12083          	lw	ra,44(sp)
     374:	02812403          	lw	s0,40(sp)
     378:	02412483          	lw	s1,36(sp)
     37c:	02012903          	lw	s2,32(sp)
     380:	01c12983          	lw	s3,28(sp)
     384:	01812a03          	lw	s4,24(sp)
     388:	01412a83          	lw	s5,20(sp)
     38c:	01012b03          	lw	s6,16(sp)
     390:	00c12b83          	lw	s7,12(sp)
     394:	03010113          	addi	sp,sp,48
     398:	00008067          	ret
     39c:	00000413          	li	s0,0
     3a0:	fc1ff06f          	j	360 <uart_recv+0xe0>
     3a4:	f77590e3          	bne	a1,s7,304 <uart_recv+0x84>
     3a8:	00d00593          	li	a1,13
     3ac:	00090513          	mv	a0,s2
     3b0:	cc5ff0ef          	jal	74 <uart_send_char>
     3b4:	00a00593          	li	a1,10
     3b8:	00090513          	mv	a0,s2
     3bc:	cb9ff0ef          	jal	74 <uart_send_char>
     3c0:	00a00793          	li	a5,10
     3c4:	00f48023          	sb	a5,0(s1)
     3c8:	f99ff06f          	j	360 <uart_recv+0xe0>
     3cc:	00090513          	mv	a0,s2
     3d0:	ca5ff0ef          	jal	74 <uart_send_char>
     3d4:	00148493          	addi	s1,s1,1
     3d8:	00140413          	addi	s0,s0,1
     3dc:	f61ff06f          	j	33c <uart_recv+0xbc>
     3e0:	00000513          	li	a0,0
     3e4:	00008067          	ret

000003e8 <net_calculate_checksum>:
     3e8:	00100613          	li	a2,1
     3ec:	00010837          	lui	a6,0x10
     3f0:	00050693          	mv	a3,a0
     3f4:	00000793          	li	a5,0
     3f8:	40a60633          	sub	a2,a2,a0
     3fc:	fff80893          	addi	a7,a6,-1 # ffff <_idata_start+0x9633>
     400:	00d60733          	add	a4,a2,a3
     404:	04b76063          	bltu	a4,a1,444 <_HEAP_SIZE+0x44>
     408:	ffe5f713          	andi	a4,a1,-2
     40c:	02b77463          	bgeu	a4,a1,434 <_HEAP_SIZE+0x34>
     410:	00e50533          	add	a0,a0,a4
     414:	00054703          	lbu	a4,0(a0)
     418:	00871713          	slli	a4,a4,0x8
     41c:	00e787b3          	add	a5,a5,a4
     420:	00010737          	lui	a4,0x10
     424:	00e7e863          	bltu	a5,a4,434 <_HEAP_SIZE+0x34>
     428:	01079793          	slli	a5,a5,0x10
     42c:	0107d793          	srli	a5,a5,0x10
     430:	00178793          	addi	a5,a5,1
     434:	fff7c513          	not	a0,a5
     438:	01051513          	slli	a0,a0,0x10
     43c:	01055513          	srli	a0,a0,0x10
     440:	00008067          	ret
     444:	0006c703          	lbu	a4,0(a3)
     448:	0016c303          	lbu	t1,1(a3)
     44c:	00871713          	slli	a4,a4,0x8
     450:	00676733          	or	a4,a4,t1
     454:	01071713          	slli	a4,a4,0x10
     458:	01075713          	srli	a4,a4,0x10
     45c:	00e787b3          	add	a5,a5,a4
     460:	0107e663          	bltu	a5,a6,46c <_HEAP_SIZE+0x6c>
     464:	0117f7b3          	and	a5,a5,a7
     468:	00178793          	addi	a5,a5,1
     46c:	00268693          	addi	a3,a3,2
     470:	f91ff06f          	j	400 <_HEAP_SIZE>

00000474 <memcmp>:
     474:	00000713          	li	a4,0
     478:	00c71663          	bne	a4,a2,484 <memcmp+0x10>
     47c:	00000513          	li	a0,0
     480:	00008067          	ret
     484:	00e507b3          	add	a5,a0,a4
     488:	00e586b3          	add	a3,a1,a4
     48c:	0007c783          	lbu	a5,0(a5)
     490:	0006c683          	lbu	a3,0(a3)
     494:	00d78663          	beq	a5,a3,4a0 <memcmp+0x2c>
     498:	40d78533          	sub	a0,a5,a3
     49c:	00008067          	ret
     4a0:	00170713          	addi	a4,a4,1 # 10001 <_idata_start+0x9635>
     4a4:	fd5ff06f          	j	478 <memcmp+0x4>

000004a8 <strlen>:
     4a8:	00050793          	mv	a5,a0
     4ac:	00000513          	li	a0,0
     4b0:	00a78733          	add	a4,a5,a0
     4b4:	00074703          	lbu	a4,0(a4)
     4b8:	00071463          	bnez	a4,4c0 <strlen+0x18>
     4bc:	00008067          	ret
     4c0:	00150513          	addi	a0,a0,1
     4c4:	fedff06f          	j	4b0 <strlen+0x8>

000004c8 <strcmp>:
     4c8:	fe010113          	addi	sp,sp,-32
     4cc:	00812c23          	sw	s0,24(sp)
     4d0:	00112e23          	sw	ra,28(sp)
     4d4:	00050413          	mv	s0,a0
     4d8:	00b12623          	sw	a1,12(sp)
     4dc:	fcdff0ef          	jal	4a8 <strlen>
     4e0:	00050613          	mv	a2,a0
     4e4:	00040513          	mv	a0,s0
     4e8:	01812403          	lw	s0,24(sp)
     4ec:	00c12583          	lw	a1,12(sp)
     4f0:	01c12083          	lw	ra,28(sp)
     4f4:	02010113          	addi	sp,sp,32
     4f8:	f7dff06f          	j	474 <memcmp>

000004fc <str_parse_uint32>:
     4fc:	00050813          	mv	a6,a0
     500:	00054503          	lbu	a0,0(a0)
     504:	00a00793          	li	a5,10
     508:	06f50463          	beq	a0,a5,570 <str_parse_uint32+0x74>
     50c:	06050463          	beqz	a0,574 <str_parse_uint32+0x78>
     510:	00000713          	li	a4,0
     514:	00a00893          	li	a7,10
     518:	00900313          	li	t1,9
     51c:	00084503          	lbu	a0,0(a6)
     520:	01151863          	bne	a0,a7,530 <str_parse_uint32+0x34>
     524:	00000513          	li	a0,0
     528:	02c77a63          	bgeu	a4,a2,55c <str_parse_uint32+0x60>
     52c:	00008067          	ret
     530:	fe050ae3          	beqz	a0,524 <str_parse_uint32+0x28>
     534:	fd050793          	addi	a5,a0,-48
     538:	0ff7f793          	zext.b	a5,a5
     53c:	02f36a63          	bltu	t1,a5,570 <str_parse_uint32+0x74>
     540:	00271793          	slli	a5,a4,0x2
     544:	00e787b3          	add	a5,a5,a4
     548:	00179793          	slli	a5,a5,0x1
     54c:	fd078793          	addi	a5,a5,-48
     550:	00f50733          	add	a4,a0,a5
     554:	00180813          	addi	a6,a6,1
     558:	fc5ff06f          	j	51c <str_parse_uint32+0x20>
     55c:	00000513          	li	a0,0
     560:	00e6ea63          	bltu	a3,a4,574 <str_parse_uint32+0x78>
     564:	00e5a023          	sw	a4,0(a1)
     568:	00100513          	li	a0,1
     56c:	00008067          	ret
     570:	00000513          	li	a0,0
     574:	00008067          	ret

00000578 <quarter_round(unsigned long*, unsigned long*, unsigned long*, unsigned long*)>:
     578:	0005a703          	lw	a4,0(a1)
     57c:	00052783          	lw	a5,0(a0)
     580:	00e787b3          	add	a5,a5,a4
     584:	00f52023          	sw	a5,0(a0)
     588:	0006a703          	lw	a4,0(a3)
     58c:	00e7c7b3          	xor	a5,a5,a4
     590:	01079713          	slli	a4,a5,0x10
     594:	0107d793          	srli	a5,a5,0x10
     598:	00e7e7b3          	or	a5,a5,a4
     59c:	00f6a023          	sw	a5,0(a3)
     5a0:	00062703          	lw	a4,0(a2)
     5a4:	00e787b3          	add	a5,a5,a4
     5a8:	00f62023          	sw	a5,0(a2)
     5ac:	0005a703          	lw	a4,0(a1)
     5b0:	00e7c7b3          	xor	a5,a5,a4
     5b4:	00c79713          	slli	a4,a5,0xc
     5b8:	0147d793          	srli	a5,a5,0x14
     5bc:	00e7e7b3          	or	a5,a5,a4
     5c0:	00f5a023          	sw	a5,0(a1)
     5c4:	00052703          	lw	a4,0(a0)
     5c8:	00e787b3          	add	a5,a5,a4
     5cc:	00f52023          	sw	a5,0(a0)
     5d0:	0006a703          	lw	a4,0(a3)
     5d4:	00e7c7b3          	xor	a5,a5,a4
     5d8:	00879713          	slli	a4,a5,0x8
     5dc:	0187d793          	srli	a5,a5,0x18
     5e0:	00e7e7b3          	or	a5,a5,a4
     5e4:	00f6a023          	sw	a5,0(a3)
     5e8:	00062703          	lw	a4,0(a2)
     5ec:	00e787b3          	add	a5,a5,a4
     5f0:	00f62023          	sw	a5,0(a2)
     5f4:	0005a703          	lw	a4,0(a1)
     5f8:	00e7c7b3          	xor	a5,a5,a4
     5fc:	00779713          	slli	a4,a5,0x7
     600:	0197d793          	srli	a5,a5,0x19
     604:	00f767b3          	or	a5,a4,a5
     608:	00f5a023          	sw	a5,0(a1)
     60c:	00008067          	ret

00000610 <uint320_add(uint320_t*, uint320_t const*, uint320_t const*)>:
     610:	00000693          	li	a3,0
     614:	00000713          	li	a4,0
     618:	02800e93          	li	t4,40
     61c:	00d587b3          	add	a5,a1,a3
     620:	00d60833          	add	a6,a2,a3
     624:	0007a303          	lw	t1,0(a5)
     628:	0047a883          	lw	a7,4(a5)
     62c:	00082783          	lw	a5,0(a6)
     630:	00482803          	lw	a6,4(a6)
     634:	00f307b3          	add	a5,t1,a5
     638:	0067be33          	sltu	t3,a5,t1
     63c:	01088833          	add	a6,a7,a6
     640:	010e0e33          	add	t3,t3,a6
     644:	00e78833          	add	a6,a5,a4
     648:	00f837b3          	sltu	a5,a6,a5
     64c:	01c787b3          	add	a5,a5,t3
     650:	0317e063          	bltu	a5,a7,670 <uint320_add(uint320_t*, uint320_t const*, uint320_t const*)+0x60>
     654:	00f89463          	bne	a7,a5,65c <uint320_add(uint320_t*, uint320_t const*, uint320_t const*)+0x4c>
     658:	00686c63          	bltu	a6,t1,670 <uint320_add(uint320_t*, uint320_t const*, uint320_t const*)+0x60>
     65c:	01031663          	bne	t1,a6,668 <uint320_add(uint320_t*, uint320_t const*, uint320_t const*)+0x58>
     660:	00177713          	andi	a4,a4,1
     664:	00f88863          	beq	a7,a5,674 <uint320_add(uint320_t*, uint320_t const*, uint320_t const*)+0x64>
     668:	00000713          	li	a4,0
     66c:	0080006f          	j	674 <uint320_add(uint320_t*, uint320_t const*, uint320_t const*)+0x64>
     670:	00100713          	li	a4,1
     674:	00d508b3          	add	a7,a0,a3
     678:	0108a023          	sw	a6,0(a7)
     67c:	00f8a223          	sw	a5,4(a7)
     680:	00868693          	addi	a3,a3,8
     684:	f9d69ce3          	bne	a3,t4,61c <uint320_add(uint320_t*, uint320_t const*, uint320_t const*)+0xc>
     688:	00008067          	ret

0000068c <encode_le64(unsigned char*, unsigned long long)>:
     68c:	0085d793          	srli	a5,a1,0x8
     690:	00b50023          	sb	a1,0(a0)
     694:	00f500a3          	sb	a5,1(a0)
     698:	0105d793          	srli	a5,a1,0x10
     69c:	0185d593          	srli	a1,a1,0x18
     6a0:	00f50123          	sb	a5,2(a0)
     6a4:	00b501a3          	sb	a1,3(a0)
     6a8:	00050223          	sb	zero,4(a0)
     6ac:	000502a3          	sb	zero,5(a0)
     6b0:	00050323          	sb	zero,6(a0)
     6b4:	000503a3          	sb	zero,7(a0)
     6b8:	00008067          	ret

000006bc <car25519(long long*)>:
     6bc:	fd010113          	addi	sp,sp,-48
     6c0:	02812423          	sw	s0,40(sp)
     6c4:	01612823          	sw	s6,16(sp)
     6c8:	01712623          	sw	s7,12(sp)
     6cc:	01812423          	sw	s8,8(sp)
     6d0:	01912223          	sw	s9,4(sp)
     6d4:	01a12023          	sw	s10,0(sp)
     6d8:	02112623          	sw	ra,44(sp)
     6dc:	02912223          	sw	s1,36(sp)
     6e0:	03212023          	sw	s2,32(sp)
     6e4:	01312e23          	sw	s3,28(sp)
     6e8:	01412c23          	sw	s4,24(sp)
     6ec:	01512a23          	sw	s5,20(sp)
     6f0:	00050b93          	mv	s7,a0
     6f4:	00050413          	mv	s0,a0
     6f8:	00000b13          	li	s6,0
     6fc:	00010d37          	lui	s10,0x10
     700:	ffff0cb7          	lui	s9,0xffff0
     704:	01000c13          	li	s8,16
     708:	00042903          	lw	s2,0(s0)
     70c:	00442783          	lw	a5,4(s0)
     710:	000b0713          	mv	a4,s6
     714:	01a904b3          	add	s1,s2,s10
     718:	0124b933          	sltu	s2,s1,s2
     71c:	00f90933          	add	s2,s2,a5
     720:	00942023          	sw	s1,0(s0)
     724:	01242223          	sw	s2,4(s0)
     728:	00f72793          	slti	a5,a4,15
     72c:	001b0b13          	addi	s6,s6,1
     730:	00000993          	li	s3,0
     734:	00078463          	beqz	a5,73c <car25519(long long*)+0x80>
     738:	000b0993          	mv	s3,s6
     73c:	01091693          	slli	a3,s2,0x10
     740:	0104d793          	srli	a5,s1,0x10
     744:	00f6e7b3          	or	a5,a3,a5
     748:	00399993          	slli	s3,s3,0x3
     74c:	41095a93          	srai	s5,s2,0x10
     750:	fff78a13          	addi	s4,a5,-1
     754:	ff170713          	addi	a4,a4,-15
     758:	0017b793          	seqz	a5,a5
     75c:	013b89b3          	add	s3,s7,s3
     760:	40fa8ab3          	sub	s5,s5,a5
     764:	0a071663          	bnez	a4,810 <car25519(long long*)+0x154>
     768:	000a0513          	mv	a0,s4
     76c:	000a8593          	mv	a1,s5
     770:	00000693          	li	a3,0
     774:	02500613          	li	a2,37
     778:	7c1040ef          	jal	5738 <__muldi3>
     77c:	0009a703          	lw	a4,0(s3)
     780:	0049a683          	lw	a3,4(s3)
     784:	01450a33          	add	s4,a0,s4
     788:	00aa37b3          	sltu	a5,s4,a0
     78c:	015585b3          	add	a1,a1,s5
     790:	01470a33          	add	s4,a4,s4
     794:	00b787b3          	add	a5,a5,a1
     798:	00f687b3          	add	a5,a3,a5
     79c:	00ea3733          	sltu	a4,s4,a4
     7a0:	00f70733          	add	a4,a4,a5
     7a4:	0149a023          	sw	s4,0(s3)
     7a8:	00e9a223          	sw	a4,4(s3)
     7ac:	00042703          	lw	a4,0(s0)
     7b0:	00442783          	lw	a5,4(s0)
     7b4:	009cf4b3          	and	s1,s9,s1
     7b8:	409704b3          	sub	s1,a4,s1
     7bc:	00973733          	sltu	a4,a4,s1
     7c0:	412787b3          	sub	a5,a5,s2
     7c4:	40e787b3          	sub	a5,a5,a4
     7c8:	00942023          	sw	s1,0(s0)
     7cc:	00f42223          	sw	a5,4(s0)
     7d0:	00840413          	addi	s0,s0,8
     7d4:	f38b1ae3          	bne	s6,s8,708 <car25519(long long*)+0x4c>
     7d8:	02c12083          	lw	ra,44(sp)
     7dc:	02812403          	lw	s0,40(sp)
     7e0:	02412483          	lw	s1,36(sp)
     7e4:	02012903          	lw	s2,32(sp)
     7e8:	01c12983          	lw	s3,28(sp)
     7ec:	01812a03          	lw	s4,24(sp)
     7f0:	01412a83          	lw	s5,20(sp)
     7f4:	01012b03          	lw	s6,16(sp)
     7f8:	00c12b83          	lw	s7,12(sp)
     7fc:	00812c03          	lw	s8,8(sp)
     800:	00412c83          	lw	s9,4(sp)
     804:	00012d03          	lw	s10,0(sp)
     808:	03010113          	addi	sp,sp,48
     80c:	00008067          	ret
     810:	00000513          	li	a0,0
     814:	00000593          	li	a1,0
     818:	f59ff06f          	j	770 <car25519(long long*)+0xb4>

0000081c <sel25519(long long*, long long*, int)>:
     81c:	fe010113          	addi	sp,sp,-32
     820:	00812c23          	sw	s0,24(sp)
     824:	00912a23          	sw	s1,20(sp)
     828:	01212823          	sw	s2,16(sp)
     82c:	01312623          	sw	s3,12(sp)
     830:	01412423          	sw	s4,8(sp)
     834:	01512223          	sw	s5,4(sp)
     838:	00112e23          	sw	ra,28(sp)
     83c:	00060913          	mv	s2,a2
     840:	00050493          	mv	s1,a0
     844:	00058413          	mv	s0,a1
     848:	08058a13          	addi	s4,a1,128
     84c:	00167a93          	andi	s5,a2,1
     850:	41f65993          	srai	s3,a2,0x1f
     854:	0004a503          	lw	a0,0(s1)
     858:	0044a583          	lw	a1,4(s1)
     85c:	00042703          	lw	a4,0(s0)
     860:	00442783          	lw	a5,4(s0)
     864:	060a8863          	beqz	s5,8d4 <sel25519(long long*, long long*, int)+0xb8>
     868:	00070693          	mv	a3,a4
     86c:	00078613          	mv	a2,a5
     870:	00d4a023          	sw	a3,0(s1)
     874:	00c4a223          	sw	a2,4(s1)
     878:	00f5c5b3          	xor	a1,a1,a5
     87c:	00090613          	mv	a2,s2
     880:	00098693          	mv	a3,s3
     884:	00e54533          	xor	a0,a0,a4
     888:	6b1040ef          	jal	5738 <__muldi3>
     88c:	00042783          	lw	a5,0(s0)
     890:	00840413          	addi	s0,s0,8
     894:	00848493          	addi	s1,s1,8
     898:	00a7c533          	xor	a0,a5,a0
     89c:	ffc42783          	lw	a5,-4(s0)
     8a0:	fea42c23          	sw	a0,-8(s0)
     8a4:	00b7c7b3          	xor	a5,a5,a1
     8a8:	fef42e23          	sw	a5,-4(s0)
     8ac:	fb4414e3          	bne	s0,s4,854 <sel25519(long long*, long long*, int)+0x38>
     8b0:	01c12083          	lw	ra,28(sp)
     8b4:	01812403          	lw	s0,24(sp)
     8b8:	01412483          	lw	s1,20(sp)
     8bc:	01012903          	lw	s2,16(sp)
     8c0:	00c12983          	lw	s3,12(sp)
     8c4:	00812a03          	lw	s4,8(sp)
     8c8:	00412a83          	lw	s5,4(sp)
     8cc:	02010113          	addi	sp,sp,32
     8d0:	00008067          	ret
     8d4:	00050693          	mv	a3,a0
     8d8:	00058613          	mv	a2,a1
     8dc:	f95ff06f          	j	870 <sel25519(long long*, long long*, int)+0x54>

000008e0 <A(long long*, long long const*, long long const*)>:
     8e0:	00000793          	li	a5,0
     8e4:	08000e13          	li	t3,128
     8e8:	00f586b3          	add	a3,a1,a5
     8ec:	00f60333          	add	t1,a2,a5
     8f0:	0006a703          	lw	a4,0(a3)
     8f4:	0046a803          	lw	a6,4(a3)
     8f8:	00032683          	lw	a3,0(t1)
     8fc:	00432303          	lw	t1,4(t1)
     900:	00f508b3          	add	a7,a0,a5
     904:	00d706b3          	add	a3,a4,a3
     908:	00e6b733          	sltu	a4,a3,a4
     90c:	00680833          	add	a6,a6,t1
     910:	01070733          	add	a4,a4,a6
     914:	00d8a023          	sw	a3,0(a7)
     918:	00e8a223          	sw	a4,4(a7)
     91c:	00878793          	addi	a5,a5,8
     920:	fdc794e3          	bne	a5,t3,8e8 <A(long long*, long long const*, long long const*)+0x8>
     924:	00008067          	ret

00000928 <Z(long long*, long long const*, long long const*)>:
     928:	00000793          	li	a5,0
     92c:	08000e13          	li	t3,128
     930:	00f58733          	add	a4,a1,a5
     934:	00f60333          	add	t1,a2,a5
     938:	00072803          	lw	a6,0(a4)
     93c:	00032683          	lw	a3,0(t1)
     940:	00472703          	lw	a4,4(a4)
     944:	00432303          	lw	t1,4(t1)
     948:	40d806b3          	sub	a3,a6,a3
     94c:	00d83833          	sltu	a6,a6,a3
     950:	40670733          	sub	a4,a4,t1
     954:	00f508b3          	add	a7,a0,a5
     958:	41070733          	sub	a4,a4,a6
     95c:	00d8a023          	sw	a3,0(a7)
     960:	00e8a223          	sw	a4,4(a7)
     964:	00878793          	addi	a5,a5,8
     968:	fdc794e3          	bne	a5,t3,930 <Z(long long*, long long const*, long long const*)+0x8>
     96c:	00008067          	ret

00000970 <M(long long*, long long const*, long long const*)>:
     970:	ec010113          	addi	sp,sp,-320
     974:	12812c23          	sw	s0,312(sp)
     978:	01810413          	addi	s0,sp,24
     97c:	13412623          	sw	s4,300(sp)
     980:	13512423          	sw	s5,296(sp)
     984:	13712023          	sw	s7,288(sp)
     988:	11a12a23          	sw	s10,276(sp)
     98c:	12112e23          	sw	ra,316(sp)
     990:	12912a23          	sw	s1,308(sp)
     994:	13212823          	sw	s2,304(sp)
     998:	13612223          	sw	s6,292(sp)
     99c:	11812e23          	sw	s8,284(sp)
     9a0:	11912c23          	sw	s9,280(sp)
     9a4:	11b12823          	sw	s11,272(sp)
     9a8:	00050a13          	mv	s4,a0
     9ac:	00058d13          	mv	s10,a1
     9b0:	00060b93          	mv	s7,a2
     9b4:	00040793          	mv	a5,s0
     9b8:	00040a93          	mv	s5,s0
     9bc:	00000713          	li	a4,0
     9c0:	00000693          	li	a3,0
     9c4:	00e7a223          	sw	a4,4(a5)
     9c8:	00d7a023          	sw	a3,0(a5)
     9cc:	11010713          	addi	a4,sp,272
     9d0:	00878793          	addi	a5,a5,8
     9d4:	fee794e3          	bne	a5,a4,9bc <M(long long*, long long const*, long long const*)+0x4c>
     9d8:	00040c93          	mv	s9,s0
     9dc:	00000c13          	li	s8,0
     9e0:	080b8d93          	addi	s11,s7,128
     9e4:	01000913          	li	s2,16
     9e8:	003c1793          	slli	a5,s8,0x3
     9ec:	00fd07b3          	add	a5,s10,a5
     9f0:	0047a803          	lw	a6,4(a5)
     9f4:	0007a783          	lw	a5,0(a5)
     9f8:	000b8b13          	mv	s6,s7
     9fc:	01012623          	sw	a6,12(sp)
     a00:	00f12423          	sw	a5,8(sp)
     a04:	000c8493          	mv	s1,s9
     a08:	000b2603          	lw	a2,0(s6)
     a0c:	004b2683          	lw	a3,4(s6)
     a10:	00812503          	lw	a0,8(sp)
     a14:	00c12583          	lw	a1,12(sp)
     a18:	008b0b13          	addi	s6,s6,8
     a1c:	00848493          	addi	s1,s1,8
     a20:	519040ef          	jal	5738 <__muldi3>
     a24:	ff84a783          	lw	a5,-8(s1)
     a28:	ffc4a703          	lw	a4,-4(s1)
     a2c:	00a78533          	add	a0,a5,a0
     a30:	00f537b3          	sltu	a5,a0,a5
     a34:	00b70733          	add	a4,a4,a1
     a38:	00e787b3          	add	a5,a5,a4
     a3c:	fea4ac23          	sw	a0,-8(s1)
     a40:	fef4ae23          	sw	a5,-4(s1)
     a44:	fdbb12e3          	bne	s6,s11,a08 <M(long long*, long long const*, long long const*)+0x98>
     a48:	001c0c13          	addi	s8,s8,1
     a4c:	008c8c93          	addi	s9,s9,8 # ffff0008 <_stack_start+0xeffe0008>
     a50:	f92c1ce3          	bne	s8,s2,9e8 <M(long long*, long long const*, long long const*)+0x78>
     a54:	07840493          	addi	s1,s0,120
     a58:	08042503          	lw	a0,128(s0)
     a5c:	08442583          	lw	a1,132(s0)
     a60:	02600613          	li	a2,38
     a64:	00000693          	li	a3,0
     a68:	4d1040ef          	jal	5738 <__muldi3>
     a6c:	00042783          	lw	a5,0(s0)
     a70:	00442703          	lw	a4,4(s0)
     a74:	00840413          	addi	s0,s0,8
     a78:	00a78533          	add	a0,a5,a0
     a7c:	00f537b3          	sltu	a5,a0,a5
     a80:	00b70733          	add	a4,a4,a1
     a84:	00e787b3          	add	a5,a5,a4
     a88:	fea42c23          	sw	a0,-8(s0)
     a8c:	fef42e23          	sw	a5,-4(s0)
     a90:	fc8494e3          	bne	s1,s0,a58 <M(long long*, long long const*, long long const*)+0xe8>
     a94:	00000793          	li	a5,0
     a98:	08000713          	li	a4,128
     a9c:	00fa8633          	add	a2,s5,a5
     aa0:	00062503          	lw	a0,0(a2)
     aa4:	00462583          	lw	a1,4(a2)
     aa8:	00fa06b3          	add	a3,s4,a5
     aac:	00a6a023          	sw	a0,0(a3)
     ab0:	00b6a223          	sw	a1,4(a3)
     ab4:	00878793          	addi	a5,a5,8
     ab8:	fee792e3          	bne	a5,a4,a9c <M(long long*, long long const*, long long const*)+0x12c>
     abc:	000a0513          	mv	a0,s4
     ac0:	bfdff0ef          	jal	6bc <car25519(long long*)>
     ac4:	13812403          	lw	s0,312(sp)
     ac8:	13c12083          	lw	ra,316(sp)
     acc:	13412483          	lw	s1,308(sp)
     ad0:	13012903          	lw	s2,304(sp)
     ad4:	12812a83          	lw	s5,296(sp)
     ad8:	12412b03          	lw	s6,292(sp)
     adc:	12012b83          	lw	s7,288(sp)
     ae0:	11c12c03          	lw	s8,284(sp)
     ae4:	11812c83          	lw	s9,280(sp)
     ae8:	11412d03          	lw	s10,276(sp)
     aec:	11012d83          	lw	s11,272(sp)
     af0:	000a0513          	mv	a0,s4
     af4:	12c12a03          	lw	s4,300(sp)
     af8:	14010113          	addi	sp,sp,320
     afc:	bc1ff06f          	j	6bc <car25519(long long*)>

00000b00 <blake2s_compress(blake2s_ctx*, int)>:
     b00:	ec010113          	addi	sp,sp,-320
     b04:	13212823          	sw	s2,304(sp)
     b08:	00058913          	mv	s2,a1
     b0c:	000075b7          	lui	a1,0x7
     b10:	12812c23          	sw	s0,312(sp)
     b14:	12912a23          	sw	s1,308(sp)
     b18:	00050413          	mv	s0,a0
     b1c:	81858493          	addi	s1,a1,-2024 # 6818 <__modsi3+0xfd0>
     b20:	0a000613          	li	a2,160
     b24:	81858593          	addi	a1,a1,-2024
     b28:	08010513          	addi	a0,sp,128
     b2c:	12112e23          	sw	ra,316(sp)
     b30:	13312623          	sw	s3,300(sp)
     b34:	13412423          	sw	s4,296(sp)
     b38:	13512223          	sw	s5,292(sp)
     b3c:	13612023          	sw	s6,288(sp)
     b40:	3c5010ef          	jal	2704 <memcpy>
     b44:	04040e13          	addi	t3,s0,64
     b48:	04010e93          	addi	t4,sp,64
     b4c:	0a048793          	addi	a5,s1,160
     b50:	00040693          	mv	a3,s0
     b54:	06040f13          	addi	t5,s0,96
     b58:	000e8613          	mv	a2,t4
     b5c:	000e0713          	mv	a4,t3
     b60:	00072583          	lw	a1,0(a4)
     b64:	00470713          	addi	a4,a4,4
     b68:	00460613          	addi	a2,a2,4
     b6c:	feb62e23          	sw	a1,-4(a2)
     b70:	0007a583          	lw	a1,0(a5)
     b74:	00478793          	addi	a5,a5,4
     b78:	00b62e23          	sw	a1,28(a2)
     b7c:	feef12e3          	bne	t5,a4,b60 <blake2s_compress(blake2s_ctx*, int)+0x60>
     b80:	06042783          	lw	a5,96(s0)
     b84:	07012883          	lw	a7,112(sp)
     b88:	06442703          	lw	a4,100(s0)
     b8c:	00f8c8b3          	xor	a7,a7,a5
     b90:	07412783          	lw	a5,116(sp)
     b94:	00e7c7b3          	xor	a5,a5,a4
     b98:	00090863          	beqz	s2,ba8 <blake2s_compress(blake2s_ctx*, int)+0xa8>
     b9c:	07812703          	lw	a4,120(sp)
     ba0:	fff74713          	not	a4,a4
     ba4:	06e12c23          	sw	a4,120(sp)
     ba8:	00010613          	mv	a2,sp
     bac:	0016c703          	lbu	a4,1(a3)
     bb0:	0026c583          	lbu	a1,2(a3)
     bb4:	00468693          	addi	a3,a3,4
     bb8:	00871713          	slli	a4,a4,0x8
     bbc:	01059593          	slli	a1,a1,0x10
     bc0:	00b74733          	xor	a4,a4,a1
     bc4:	ffc6c583          	lbu	a1,-4(a3)
     bc8:	00460613          	addi	a2,a2,4
     bcc:	00b74733          	xor	a4,a4,a1
     bd0:	fff6c583          	lbu	a1,-1(a3)
     bd4:	01859593          	slli	a1,a1,0x18
     bd8:	00b74733          	xor	a4,a4,a1
     bdc:	fee62e23          	sw	a4,-4(a2)
     be0:	fcde16e3          	bne	t3,a3,bac <blake2s_compress(blake2s_ctx*, int)+0xac>
     be4:	04012903          	lw	s2,64(sp)
     be8:	05012603          	lw	a2,80(sp)
     bec:	06012a83          	lw	s5,96(sp)
     bf0:	04412383          	lw	t2,68(sp)
     bf4:	05412303          	lw	t1,84(sp)
     bf8:	06412a03          	lw	s4,100(sp)
     bfc:	04812983          	lw	s3,72(sp)
     c00:	05812803          	lw	a6,88(sp)
     c04:	07812703          	lw	a4,120(sp)
     c08:	06812483          	lw	s1,104(sp)
     c0c:	04c12283          	lw	t0,76(sp)
     c10:	05c12503          	lw	a0,92(sp)
     c14:	07c12683          	lw	a3,124(sp)
     c18:	06c12403          	lw	s0,108(sp)
     c1c:	08010f93          	addi	t6,sp,128
     c20:	000fc583          	lbu	a1,0(t6)
     c24:	010f8f93          	addi	t6,t6,16
     c28:	00259593          	slli	a1,a1,0x2
     c2c:	12058593          	addi	a1,a1,288
     c30:	002585b3          	add	a1,a1,sp
     c34:	ee05ab03          	lw	s6,-288(a1)
     c38:	01660b33          	add	s6,a2,s6
     c3c:	012b0b33          	add	s6,s6,s2
     c40:	011b45b3          	xor	a1,s6,a7
     c44:	01059893          	slli	a7,a1,0x10
     c48:	0105d593          	srli	a1,a1,0x10
     c4c:	0115e5b3          	or	a1,a1,a7
     c50:	01558ab3          	add	s5,a1,s5
     c54:	00cac633          	xor	a2,s5,a2
     c58:	00c65893          	srli	a7,a2,0xc
     c5c:	01461613          	slli	a2,a2,0x14
     c60:	01166633          	or	a2,a2,a7
     c64:	ff1fc883          	lbu	a7,-15(t6)
     c68:	00289893          	slli	a7,a7,0x2
     c6c:	12088893          	addi	a7,a7,288
     c70:	002888b3          	add	a7,a7,sp
     c74:	ee08a903          	lw	s2,-288(a7)
     c78:	01260933          	add	s2,a2,s2
     c7c:	01690933          	add	s2,s2,s6
     c80:	0125c5b3          	xor	a1,a1,s2
     c84:	0085d893          	srli	a7,a1,0x8
     c88:	01859593          	slli	a1,a1,0x18
     c8c:	0115e5b3          	or	a1,a1,a7
     c90:	00ba8ab3          	add	s5,s5,a1
     c94:	01564633          	xor	a2,a2,s5
     c98:	00765893          	srli	a7,a2,0x7
     c9c:	01961613          	slli	a2,a2,0x19
     ca0:	01166633          	or	a2,a2,a7
     ca4:	ff2fc883          	lbu	a7,-14(t6)
     ca8:	00289893          	slli	a7,a7,0x2
     cac:	12088893          	addi	a7,a7,288
     cb0:	002888b3          	add	a7,a7,sp
     cb4:	ee08a883          	lw	a7,-288(a7)
     cb8:	011308b3          	add	a7,t1,a7
     cbc:	007888b3          	add	a7,a7,t2
     cc0:	00f8c7b3          	xor	a5,a7,a5
     cc4:	01079393          	slli	t2,a5,0x10
     cc8:	0107d793          	srli	a5,a5,0x10
     ccc:	0077e7b3          	or	a5,a5,t2
     cd0:	01478a33          	add	s4,a5,s4
     cd4:	006a4333          	xor	t1,s4,t1
     cd8:	00c35393          	srli	t2,t1,0xc
     cdc:	01431313          	slli	t1,t1,0x14
     ce0:	00736333          	or	t1,t1,t2
     ce4:	ff3fc383          	lbu	t2,-13(t6)
     ce8:	00239393          	slli	t2,t2,0x2
     cec:	12038393          	addi	t2,t2,288
     cf0:	002383b3          	add	t2,t2,sp
     cf4:	ee03a383          	lw	t2,-288(t2)
     cf8:	007303b3          	add	t2,t1,t2
     cfc:	011383b3          	add	t2,t2,a7
     d00:	0077c7b3          	xor	a5,a5,t2
     d04:	0087d893          	srli	a7,a5,0x8
     d08:	01879793          	slli	a5,a5,0x18
     d0c:	0117e7b3          	or	a5,a5,a7
     d10:	00fa0a33          	add	s4,s4,a5
     d14:	01434333          	xor	t1,t1,s4
     d18:	00735893          	srli	a7,t1,0x7
     d1c:	01931313          	slli	t1,t1,0x19
     d20:	01136333          	or	t1,t1,a7
     d24:	ff4fc883          	lbu	a7,-12(t6)
     d28:	00289893          	slli	a7,a7,0x2
     d2c:	12088893          	addi	a7,a7,288
     d30:	002888b3          	add	a7,a7,sp
     d34:	ee08a883          	lw	a7,-288(a7)
     d38:	011808b3          	add	a7,a6,a7
     d3c:	013888b3          	add	a7,a7,s3
     d40:	00e8c733          	xor	a4,a7,a4
     d44:	01071993          	slli	s3,a4,0x10
     d48:	01075713          	srli	a4,a4,0x10
     d4c:	01376733          	or	a4,a4,s3
     d50:	009704b3          	add	s1,a4,s1
     d54:	0104c833          	xor	a6,s1,a6
     d58:	00c85993          	srli	s3,a6,0xc
     d5c:	01481813          	slli	a6,a6,0x14
     d60:	01386833          	or	a6,a6,s3
     d64:	ff5fc983          	lbu	s3,-11(t6)
     d68:	00299993          	slli	s3,s3,0x2
     d6c:	12098993          	addi	s3,s3,288
     d70:	002989b3          	add	s3,s3,sp
     d74:	ee09a983          	lw	s3,-288(s3)
     d78:	013809b3          	add	s3,a6,s3
     d7c:	011989b3          	add	s3,s3,a7
     d80:	01374733          	xor	a4,a4,s3
     d84:	00875893          	srli	a7,a4,0x8
     d88:	01871713          	slli	a4,a4,0x18
     d8c:	01176733          	or	a4,a4,a7
     d90:	00e484b3          	add	s1,s1,a4
     d94:	00984833          	xor	a6,a6,s1
     d98:	00785893          	srli	a7,a6,0x7
     d9c:	01981813          	slli	a6,a6,0x19
     da0:	01186833          	or	a6,a6,a7
     da4:	ff6fc883          	lbu	a7,-10(t6)
     da8:	00289893          	slli	a7,a7,0x2
     dac:	12088893          	addi	a7,a7,288
     db0:	002888b3          	add	a7,a7,sp
     db4:	ee08a883          	lw	a7,-288(a7)
     db8:	011508b3          	add	a7,a0,a7
     dbc:	005888b3          	add	a7,a7,t0
     dc0:	00d8c6b3          	xor	a3,a7,a3
     dc4:	01069293          	slli	t0,a3,0x10
     dc8:	0106d693          	srli	a3,a3,0x10
     dcc:	0056e6b3          	or	a3,a3,t0
     dd0:	00868433          	add	s0,a3,s0
     dd4:	00a44533          	xor	a0,s0,a0
     dd8:	00c55293          	srli	t0,a0,0xc
     ddc:	01451513          	slli	a0,a0,0x14
     de0:	00556533          	or	a0,a0,t0
     de4:	ff7fc283          	lbu	t0,-9(t6)
     de8:	00229293          	slli	t0,t0,0x2
     dec:	12028293          	addi	t0,t0,288
     df0:	002282b3          	add	t0,t0,sp
     df4:	ee02a283          	lw	t0,-288(t0)
     df8:	005502b3          	add	t0,a0,t0
     dfc:	011282b3          	add	t0,t0,a7
     e00:	0056c6b3          	xor	a3,a3,t0
     e04:	0086d893          	srli	a7,a3,0x8
     e08:	01869693          	slli	a3,a3,0x18
     e0c:	0116e6b3          	or	a3,a3,a7
     e10:	00d40433          	add	s0,s0,a3
     e14:	00854533          	xor	a0,a0,s0
     e18:	00755893          	srli	a7,a0,0x7
     e1c:	01951513          	slli	a0,a0,0x19
     e20:	01156533          	or	a0,a0,a7
     e24:	ff8fc883          	lbu	a7,-8(t6)
     e28:	00289893          	slli	a7,a7,0x2
     e2c:	12088893          	addi	a7,a7,288
     e30:	002888b3          	add	a7,a7,sp
     e34:	ee08a883          	lw	a7,-288(a7)
     e38:	01190933          	add	s2,s2,a7
     e3c:	00690933          	add	s2,s2,t1
     e40:	0126c6b3          	xor	a3,a3,s2
     e44:	01069893          	slli	a7,a3,0x10
     e48:	0106d693          	srli	a3,a3,0x10
     e4c:	0116e6b3          	or	a3,a3,a7
     e50:	00d484b3          	add	s1,s1,a3
     e54:	00934333          	xor	t1,t1,s1
     e58:	00c35893          	srli	a7,t1,0xc
     e5c:	01431313          	slli	t1,t1,0x14
     e60:	01136333          	or	t1,t1,a7
     e64:	ff9fc883          	lbu	a7,-7(t6)
     e68:	00289893          	slli	a7,a7,0x2
     e6c:	12088893          	addi	a7,a7,288
     e70:	002888b3          	add	a7,a7,sp
     e74:	ee08a883          	lw	a7,-288(a7)
     e78:	01190933          	add	s2,s2,a7
     e7c:	00690933          	add	s2,s2,t1
     e80:	0126c6b3          	xor	a3,a3,s2
     e84:	0086d893          	srli	a7,a3,0x8
     e88:	01869693          	slli	a3,a3,0x18
     e8c:	0116e6b3          	or	a3,a3,a7
     e90:	00d484b3          	add	s1,s1,a3
     e94:	00934333          	xor	t1,t1,s1
     e98:	00735893          	srli	a7,t1,0x7
     e9c:	01931313          	slli	t1,t1,0x19
     ea0:	01136333          	or	t1,t1,a7
     ea4:	ffafc883          	lbu	a7,-6(t6)
     ea8:	00289893          	slli	a7,a7,0x2
     eac:	12088893          	addi	a7,a7,288
     eb0:	002888b3          	add	a7,a7,sp
     eb4:	ee08a883          	lw	a7,-288(a7)
     eb8:	011383b3          	add	t2,t2,a7
     ebc:	010383b3          	add	t2,t2,a6
     ec0:	0075c5b3          	xor	a1,a1,t2
     ec4:	01059b13          	slli	s6,a1,0x10
     ec8:	0105d893          	srli	a7,a1,0x10
     ecc:	0168e8b3          	or	a7,a7,s6
     ed0:	01140433          	add	s0,s0,a7
     ed4:	00884833          	xor	a6,a6,s0
     ed8:	00c85593          	srli	a1,a6,0xc
     edc:	01481813          	slli	a6,a6,0x14
     ee0:	00b86833          	or	a6,a6,a1
     ee4:	ffbfc583          	lbu	a1,-5(t6)
     ee8:	00259593          	slli	a1,a1,0x2
     eec:	12058593          	addi	a1,a1,288
     ef0:	002585b3          	add	a1,a1,sp
     ef4:	ee05a583          	lw	a1,-288(a1)
     ef8:	00b383b3          	add	t2,t2,a1
     efc:	010383b3          	add	t2,t2,a6
     f00:	0078c8b3          	xor	a7,a7,t2
     f04:	0088d593          	srli	a1,a7,0x8
     f08:	01889893          	slli	a7,a7,0x18
     f0c:	00b8e8b3          	or	a7,a7,a1
     f10:	01140433          	add	s0,s0,a7
     f14:	00884833          	xor	a6,a6,s0
     f18:	00785593          	srli	a1,a6,0x7
     f1c:	01981813          	slli	a6,a6,0x19
     f20:	00b86833          	or	a6,a6,a1
     f24:	ffcfc583          	lbu	a1,-4(t6)
     f28:	00259593          	slli	a1,a1,0x2
     f2c:	12058593          	addi	a1,a1,288
     f30:	002585b3          	add	a1,a1,sp
     f34:	ee05a583          	lw	a1,-288(a1)
     f38:	00b989b3          	add	s3,s3,a1
     f3c:	00a989b3          	add	s3,s3,a0
     f40:	0137c7b3          	xor	a5,a5,s3
     f44:	01079593          	slli	a1,a5,0x10
     f48:	0107d793          	srli	a5,a5,0x10
     f4c:	00b7e7b3          	or	a5,a5,a1
     f50:	00fa8ab3          	add	s5,s5,a5
     f54:	01554533          	xor	a0,a0,s5
     f58:	00c55593          	srli	a1,a0,0xc
     f5c:	01451513          	slli	a0,a0,0x14
     f60:	00b56533          	or	a0,a0,a1
     f64:	ffdfc583          	lbu	a1,-3(t6)
     f68:	00259593          	slli	a1,a1,0x2
     f6c:	12058593          	addi	a1,a1,288
     f70:	002585b3          	add	a1,a1,sp
     f74:	ee05a583          	lw	a1,-288(a1)
     f78:	00b989b3          	add	s3,s3,a1
     f7c:	00a989b3          	add	s3,s3,a0
     f80:	0137c7b3          	xor	a5,a5,s3
     f84:	0087d593          	srli	a1,a5,0x8
     f88:	01879793          	slli	a5,a5,0x18
     f8c:	00b7e7b3          	or	a5,a5,a1
     f90:	00fa8ab3          	add	s5,s5,a5
     f94:	01554533          	xor	a0,a0,s5
     f98:	00755593          	srli	a1,a0,0x7
     f9c:	01951513          	slli	a0,a0,0x19
     fa0:	00b56533          	or	a0,a0,a1
     fa4:	ffefc583          	lbu	a1,-2(t6)
     fa8:	00259593          	slli	a1,a1,0x2
     fac:	12058593          	addi	a1,a1,288
     fb0:	002585b3          	add	a1,a1,sp
     fb4:	ee05a583          	lw	a1,-288(a1)
     fb8:	00b282b3          	add	t0,t0,a1
     fbc:	00c282b3          	add	t0,t0,a2
     fc0:	00574733          	xor	a4,a4,t0
     fc4:	01071593          	slli	a1,a4,0x10
     fc8:	01075713          	srli	a4,a4,0x10
     fcc:	00b76733          	or	a4,a4,a1
     fd0:	00ea0a33          	add	s4,s4,a4
     fd4:	01464633          	xor	a2,a2,s4
     fd8:	00c65593          	srli	a1,a2,0xc
     fdc:	01461613          	slli	a2,a2,0x14
     fe0:	00b66633          	or	a2,a2,a1
     fe4:	ffffc583          	lbu	a1,-1(t6)
     fe8:	00259593          	slli	a1,a1,0x2
     fec:	12058593          	addi	a1,a1,288
     ff0:	002585b3          	add	a1,a1,sp
     ff4:	ee05a583          	lw	a1,-288(a1)
     ff8:	00b282b3          	add	t0,t0,a1
     ffc:	00c282b3          	add	t0,t0,a2
    1000:	00574733          	xor	a4,a4,t0
    1004:	00875593          	srli	a1,a4,0x8
    1008:	01871713          	slli	a4,a4,0x18
    100c:	00b76733          	or	a4,a4,a1
    1010:	00ea0a33          	add	s4,s4,a4
    1014:	01464633          	xor	a2,a2,s4
    1018:	00765593          	srli	a1,a2,0x7
    101c:	01961613          	slli	a2,a2,0x19
    1020:	00b66633          	or	a2,a2,a1
    1024:	12010593          	addi	a1,sp,288
    1028:	bff59ce3          	bne	a1,t6,c20 <blake2s_compress(blake2s_ctx*, int)+0x120>
    102c:	05212023          	sw	s2,64(sp)
    1030:	06d12e23          	sw	a3,124(sp)
    1034:	06912423          	sw	s1,104(sp)
    1038:	04612a23          	sw	t1,84(sp)
    103c:	04712223          	sw	t2,68(sp)
    1040:	07112823          	sw	a7,112(sp)
    1044:	06812623          	sw	s0,108(sp)
    1048:	05012c23          	sw	a6,88(sp)
    104c:	05312423          	sw	s3,72(sp)
    1050:	06f12a23          	sw	a5,116(sp)
    1054:	07512023          	sw	s5,96(sp)
    1058:	04a12e23          	sw	a0,92(sp)
    105c:	04512623          	sw	t0,76(sp)
    1060:	06e12c23          	sw	a4,120(sp)
    1064:	07412223          	sw	s4,100(sp)
    1068:	04c12823          	sw	a2,80(sp)
    106c:	000e2783          	lw	a5,0(t3)
    1070:	000ea703          	lw	a4,0(t4)
    1074:	004e0e13          	addi	t3,t3,4
    1078:	004e8e93          	addi	t4,t4,4
    107c:	00e7c7b3          	xor	a5,a5,a4
    1080:	01cea703          	lw	a4,28(t4)
    1084:	00e7c7b3          	xor	a5,a5,a4
    1088:	fefe2e23          	sw	a5,-4(t3)
    108c:	ffcf10e3          	bne	t5,t3,106c <blake2s_compress(blake2s_ctx*, int)+0x56c>
    1090:	13c12083          	lw	ra,316(sp)
    1094:	13812403          	lw	s0,312(sp)
    1098:	13412483          	lw	s1,308(sp)
    109c:	13012903          	lw	s2,304(sp)
    10a0:	12c12983          	lw	s3,300(sp)
    10a4:	12812a03          	lw	s4,296(sp)
    10a8:	12412a83          	lw	s5,292(sp)
    10ac:	12012b03          	lw	s6,288(sp)
    10b0:	14010113          	addi	sp,sp,320
    10b4:	00008067          	ret

000010b8 <malloc>:
    10b8:	100096b7          	lui	a3,0x10009
    10bc:	c246a703          	lw	a4,-988(a3) # 10008c24 <heap_memory_used>
    10c0:	100017b7          	lui	a5,0x10001
    10c4:	c2478793          	addi	a5,a5,-988 # 10000c24 <heap_memory>
    10c8:	00f707b3          	add	a5,a4,a5
    10cc:	00a70733          	add	a4,a4,a0
    10d0:	c2e6a223          	sw	a4,-988(a3)
    10d4:	000086b7          	lui	a3,0x8
    10d8:	00e6d463          	bge	a3,a4,10e0 <malloc+0x28>
    10dc:	00100073          	ebreak
    10e0:	00078513          	mv	a0,a5
    10e4:	00008067          	ret

000010e8 <show_routes_entry(csr_vp_t volatile*, int)>:
    10e8:	fe010113          	addi	sp,sp,-32
    10ec:	00912a23          	sw	s1,20(sp)
    10f0:	00058493          	mv	s1,a1
    10f4:	000065b7          	lui	a1,0x6
    10f8:	88c58593          	addi	a1,a1,-1908 # 588c <__modsi3+0x44>
    10fc:	00112e23          	sw	ra,28(sp)
    1100:	00812c23          	sw	s0,24(sp)
    1104:	01212823          	sw	s2,16(sp)
    1108:	00050413          	mv	s0,a0
    110c:	8b8ff0ef          	jal	1c4 <uart_send>
    1110:	00048593          	mv	a1,s1
    1114:	00040513          	mv	a0,s0
    1118:	ff1fe0ef          	jal	108 <uart_send_dec>
    111c:	02842783          	lw	a5,40(s0)
    1120:	00249493          	slli	s1,s1,0x2
    1124:	000065b7          	lui	a1,0x6
    1128:	009787b3          	add	a5,a5,s1
    112c:	0007a783          	lw	a5,0(a5)
    1130:	89058593          	addi	a1,a1,-1904 # 5890 <__modsi3+0x48>
    1134:	00040513          	mv	a0,s0
    1138:	0007a783          	lw	a5,0(a5)
    113c:	0007a683          	lw	a3,0(a5)
    1140:	0006d783          	lhu	a5,0(a3) # 8000 <_idata_start+0x1634>
    1144:	00879713          	slli	a4,a5,0x8
    1148:	0087d793          	srli	a5,a5,0x8
    114c:	00f76733          	or	a4,a4,a5
    1150:	0006a783          	lw	a5,0(a3)
    1154:	00e11723          	sh	a4,14(sp)
    1158:	0187d693          	srli	a3,a5,0x18
    115c:	0107d793          	srli	a5,a5,0x10
    1160:	00d10623          	sb	a3,12(sp)
    1164:	00f106a3          	sb	a5,13(sp)
    1168:	85cff0ef          	jal	1c4 <uart_send>
    116c:	00c10593          	addi	a1,sp,12
    1170:	00040513          	mv	a0,s0
    1174:	894ff0ef          	jal	208 <uart_send_ip>
    1178:	02842783          	lw	a5,40(s0)
    117c:	000065b7          	lui	a1,0x6
    1180:	89858593          	addi	a1,a1,-1896 # 5898 <__modsi3+0x50>
    1184:	009787b3          	add	a5,a5,s1
    1188:	0007a783          	lw	a5,0(a5)
    118c:	00040513          	mv	a0,s0
    1190:	0047a783          	lw	a5,4(a5)
    1194:	0007a683          	lw	a3,0(a5)
    1198:	0006d783          	lhu	a5,0(a3)
    119c:	00879713          	slli	a4,a5,0x8
    11a0:	0087d793          	srli	a5,a5,0x8
    11a4:	00f76733          	or	a4,a4,a5
    11a8:	0006a783          	lw	a5,0(a3)
    11ac:	00e11523          	sh	a4,10(sp)
    11b0:	0187d693          	srli	a3,a5,0x18
    11b4:	0107d793          	srli	a5,a5,0x10
    11b8:	00d10423          	sb	a3,8(sp)
    11bc:	00f104a3          	sb	a5,9(sp)
    11c0:	804ff0ef          	jal	1c4 <uart_send>
    11c4:	00810593          	addi	a1,sp,8
    11c8:	00040513          	mv	a0,s0
    11cc:	83cff0ef          	jal	208 <uart_send_ip>
    11d0:	02842783          	lw	a5,40(s0)
    11d4:	000065b7          	lui	a1,0x6
    11d8:	8a458593          	addi	a1,a1,-1884 # 58a4 <__modsi3+0x5c>
    11dc:	009787b3          	add	a5,a5,s1
    11e0:	0007a783          	lw	a5,0(a5)
    11e4:	00040513          	mv	a0,s0
    11e8:	0087a783          	lw	a5,8(a5)
    11ec:	0007a783          	lw	a5,0(a5)
    11f0:	0007a903          	lw	s2,0(a5)
    11f4:	fd1fe0ef          	jal	1c4 <uart_send>
    11f8:	00040513          	mv	a0,s0
    11fc:	03f97913          	andi	s2,s2,63
    1200:	00090593          	mv	a1,s2
    1204:	f05fe0ef          	jal	108 <uart_send_dec>
    1208:	02842783          	lw	a5,40(s0)
    120c:	000065b7          	lui	a1,0x6
    1210:	8b458593          	addi	a1,a1,-1868 # 58b4 <__modsi3+0x6c>
    1214:	009787b3          	add	a5,a5,s1
    1218:	0007a783          	lw	a5,0(a5)
    121c:	00040513          	mv	a0,s0
    1220:	00c7a783          	lw	a5,12(a5)
    1224:	0007a783          	lw	a5,0(a5)
    1228:	0007a483          	lw	s1,0(a5)
    122c:	f99fe0ef          	jal	1c4 <uart_send>
    1230:	00040513          	mv	a0,s0
    1234:	0074f493          	andi	s1,s1,7
    1238:	00048593          	mv	a1,s1
    123c:	ecdfe0ef          	jal	108 <uart_send_dec>
    1240:	000067b7          	lui	a5,0x6
    1244:	7d878793          	addi	a5,a5,2008 # 67d8 <__modsi3+0xf90>
    1248:	00249493          	slli	s1,s1,0x2
    124c:	00f484b3          	add	s1,s1,a5
    1250:	0004a783          	lw	a5,0(s1)
    1254:	00078067          	jr	a5
    1258:	000065b7          	lui	a1,0x6
    125c:	8d058593          	addi	a1,a1,-1840 # 58d0 <__modsi3+0x88>
    1260:	00040513          	mv	a0,s0
    1264:	f61fe0ef          	jal	1c4 <uart_send>
    1268:	00040513          	mv	a0,s0
    126c:	01812403          	lw	s0,24(sp)
    1270:	01c12083          	lw	ra,28(sp)
    1274:	01412483          	lw	s1,20(sp)
    1278:	01012903          	lw	s2,16(sp)
    127c:	000065b7          	lui	a1,0x6
    1280:	d6c58593          	addi	a1,a1,-660 # 5d6c <__modsi3+0x524>
    1284:	02010113          	addi	sp,sp,32
    1288:	f3dfe06f          	j	1c4 <uart_send>
    128c:	000065b7          	lui	a1,0x6
    1290:	8dc58593          	addi	a1,a1,-1828 # 58dc <__modsi3+0x94>
    1294:	fcdff06f          	j	1260 <show_routes_entry(csr_vp_t volatile*, int)+0x178>
    1298:	000065b7          	lui	a1,0x6
    129c:	8e858593          	addi	a1,a1,-1816 # 58e8 <__modsi3+0xa0>
    12a0:	fc1ff06f          	j	1260 <show_routes_entry(csr_vp_t volatile*, int)+0x178>
    12a4:	000065b7          	lui	a1,0x6
    12a8:	8f458593          	addi	a1,a1,-1804 # 58f4 <__modsi3+0xac>
    12ac:	fb5ff06f          	j	1260 <show_routes_entry(csr_vp_t volatile*, int)+0x178>
    12b0:	000065b7          	lui	a1,0x6
    12b4:	90058593          	addi	a1,a1,-1792 # 5900 <__modsi3+0xb8>
    12b8:	fa9ff06f          	j	1260 <show_routes_entry(csr_vp_t volatile*, int)+0x178>
    12bc:	000065b7          	lui	a1,0x6
    12c0:	90c58593          	addi	a1,a1,-1780 # 590c <__modsi3+0xc4>
    12c4:	f9dff06f          	j	1260 <show_routes_entry(csr_vp_t volatile*, int)+0x178>
    12c8:	000065b7          	lui	a1,0x6
    12cc:	91858593          	addi	a1,a1,-1768 # 5918 <__modsi3+0xd0>
    12d0:	f91ff06f          	j	1260 <show_routes_entry(csr_vp_t volatile*, int)+0x178>
    12d4:	000065b7          	lui	a1,0x6
    12d8:	92458593          	addi	a1,a1,-1756 # 5924 <__modsi3+0xdc>
    12dc:	f85ff06f          	j	1260 <show_routes_entry(csr_vp_t volatile*, int)+0x178>

000012e0 <show_cryptokeys_entry(csr_vp_t volatile*, int)>:
    12e0:	fe010113          	addi	sp,sp,-32
    12e4:	00912a23          	sw	s1,20(sp)
    12e8:	00058493          	mv	s1,a1
    12ec:	000065b7          	lui	a1,0x6
    12f0:	88c58593          	addi	a1,a1,-1908 # 588c <__modsi3+0x44>
    12f4:	00112e23          	sw	ra,28(sp)
    12f8:	00812c23          	sw	s0,24(sp)
    12fc:	00050413          	mv	s0,a0
    1300:	ec5fe0ef          	jal	1c4 <uart_send>
    1304:	00048593          	mv	a1,s1
    1308:	00040513          	mv	a0,s0
    130c:	dfdfe0ef          	jal	108 <uart_send_dec>
    1310:	000065b7          	lui	a1,0x6
    1314:	00040513          	mv	a0,s0
    1318:	93058593          	addi	a1,a1,-1744 # 5930 <__modsi3+0xe8>
    131c:	ea9fe0ef          	jal	1c4 <uart_send>
    1320:	02c42783          	lw	a5,44(s0)
    1324:	00249493          	slli	s1,s1,0x2
    1328:	00040513          	mv	a0,s0
    132c:	009787b3          	add	a5,a5,s1
    1330:	0007a783          	lw	a5,0(a5)
    1334:	00400613          	li	a2,4
    1338:	0007a783          	lw	a5,0(a5)
    133c:	0007a783          	lw	a5,0(a5)
    1340:	0007d583          	lhu	a1,0(a5)
    1344:	d59fe0ef          	jal	9c <uart_send_hex>
    1348:	02c42783          	lw	a5,44(s0)
    134c:	00800613          	li	a2,8
    1350:	00040513          	mv	a0,s0
    1354:	009787b3          	add	a5,a5,s1
    1358:	0007a783          	lw	a5,0(a5)
    135c:	0047a783          	lw	a5,4(a5)
    1360:	0007a783          	lw	a5,0(a5)
    1364:	0007a583          	lw	a1,0(a5)
    1368:	d35fe0ef          	jal	9c <uart_send_hex>
    136c:	000065b7          	lui	a1,0x6
    1370:	00040513          	mv	a0,s0
    1374:	94058593          	addi	a1,a1,-1728 # 5940 <__modsi3+0xf8>
    1378:	e4dfe0ef          	jal	1c4 <uart_send>
    137c:	02c42783          	lw	a5,44(s0)
    1380:	00c10593          	addi	a1,sp,12
    1384:	00040513          	mv	a0,s0
    1388:	009787b3          	add	a5,a5,s1
    138c:	0007a783          	lw	a5,0(a5)
    1390:	0087a783          	lw	a5,8(a5)
    1394:	0007a683          	lw	a3,0(a5)
    1398:	0006d783          	lhu	a5,0(a3)
    139c:	00879713          	slli	a4,a5,0x8
    13a0:	0087d793          	srli	a5,a5,0x8
    13a4:	00f76733          	or	a4,a4,a5
    13a8:	0006a783          	lw	a5,0(a3)
    13ac:	00e11723          	sh	a4,14(sp)
    13b0:	0187d693          	srli	a3,a5,0x18
    13b4:	0107d793          	srli	a5,a5,0x10
    13b8:	00d10623          	sb	a3,12(sp)
    13bc:	00f106a3          	sb	a5,13(sp)
    13c0:	e49fe0ef          	jal	208 <uart_send_ip>
    13c4:	000065b7          	lui	a1,0x6
    13c8:	00040513          	mv	a0,s0
    13cc:	95058593          	addi	a1,a1,-1712 # 5950 <__modsi3+0x108>
    13d0:	df5fe0ef          	jal	1c4 <uart_send>
    13d4:	02c42783          	lw	a5,44(s0)
    13d8:	00040513          	mv	a0,s0
    13dc:	009787b3          	add	a5,a5,s1
    13e0:	0007a783          	lw	a5,0(a5)
    13e4:	00c7a783          	lw	a5,12(a5)
    13e8:	0007a783          	lw	a5,0(a5)
    13ec:	0007d583          	lhu	a1,0(a5)
    13f0:	d19fe0ef          	jal	108 <uart_send_dec>
    13f4:	000065b7          	lui	a1,0x6
    13f8:	00040513          	mv	a0,s0
    13fc:	96058593          	addi	a1,a1,-1696 # 5960 <__modsi3+0x118>
    1400:	dc5fe0ef          	jal	1c4 <uart_send>
    1404:	02c42783          	lw	a5,44(s0)
    1408:	00800613          	li	a2,8
    140c:	00040513          	mv	a0,s0
    1410:	009787b3          	add	a5,a5,s1
    1414:	0007a783          	lw	a5,0(a5)
    1418:	0107a783          	lw	a5,16(a5)
    141c:	0007a783          	lw	a5,0(a5)
    1420:	0007a583          	lw	a1,0(a5)
    1424:	c79fe0ef          	jal	9c <uart_send_hex>
    1428:	000065b7          	lui	a1,0x6
    142c:	00040513          	mv	a0,s0
    1430:	97058593          	addi	a1,a1,-1680 # 5970 <__modsi3+0x128>
    1434:	d91fe0ef          	jal	1c4 <uart_send>
    1438:	02c42783          	lw	a5,44(s0)
    143c:	00040513          	mv	a0,s0
    1440:	00400613          	li	a2,4
    1444:	009787b3          	add	a5,a5,s1
    1448:	0007a783          	lw	a5,0(a5)
    144c:	0147a783          	lw	a5,20(a5)
    1450:	0007a783          	lw	a5,0(a5)
    1454:	0007d583          	lhu	a1,0(a5)
    1458:	c45fe0ef          	jal	9c <uart_send_hex>
    145c:	02c42783          	lw	a5,44(s0)
    1460:	00800613          	li	a2,8
    1464:	00040513          	mv	a0,s0
    1468:	009787b3          	add	a5,a5,s1
    146c:	0007a783          	lw	a5,0(a5)
    1470:	0187a783          	lw	a5,24(a5)
    1474:	0007a783          	lw	a5,0(a5)
    1478:	0007a583          	lw	a1,0(a5)
    147c:	c21fe0ef          	jal	9c <uart_send_hex>
    1480:	000065b7          	lui	a1,0x6
    1484:	00040513          	mv	a0,s0
    1488:	98458593          	addi	a1,a1,-1660 # 5984 <__modsi3+0x13c>
    148c:	d39fe0ef          	jal	1c4 <uart_send>
    1490:	02c42783          	lw	a5,44(s0)
    1494:	00810593          	addi	a1,sp,8
    1498:	00040513          	mv	a0,s0
    149c:	009787b3          	add	a5,a5,s1
    14a0:	0007a783          	lw	a5,0(a5)
    14a4:	01c7a783          	lw	a5,28(a5)
    14a8:	0007a683          	lw	a3,0(a5)
    14ac:	0006d783          	lhu	a5,0(a3)
    14b0:	00879713          	slli	a4,a5,0x8
    14b4:	0087d793          	srli	a5,a5,0x8
    14b8:	00f76733          	or	a4,a4,a5
    14bc:	0006a783          	lw	a5,0(a3)
    14c0:	00e11523          	sh	a4,10(sp)
    14c4:	0187d693          	srli	a3,a5,0x18
    14c8:	0107d793          	srli	a5,a5,0x10
    14cc:	00d10423          	sb	a3,8(sp)
    14d0:	00f104a3          	sb	a5,9(sp)
    14d4:	d35fe0ef          	jal	208 <uart_send_ip>
    14d8:	000065b7          	lui	a1,0x6
    14dc:	00040513          	mv	a0,s0
    14e0:	99458593          	addi	a1,a1,-1644 # 5994 <__modsi3+0x14c>
    14e4:	ce1fe0ef          	jal	1c4 <uart_send>
    14e8:	02c42783          	lw	a5,44(s0)
    14ec:	00040513          	mv	a0,s0
    14f0:	009787b3          	add	a5,a5,s1
    14f4:	0007a783          	lw	a5,0(a5)
    14f8:	0207a783          	lw	a5,32(a5)
    14fc:	0007a783          	lw	a5,0(a5)
    1500:	0007d583          	lhu	a1,0(a5)
    1504:	c05fe0ef          	jal	108 <uart_send_dec>
    1508:	000065b7          	lui	a1,0x6
    150c:	00040513          	mv	a0,s0
    1510:	9a458593          	addi	a1,a1,-1628 # 59a4 <__modsi3+0x15c>
    1514:	cb1fe0ef          	jal	1c4 <uart_send>
    1518:	02c42783          	lw	a5,44(s0)
    151c:	00800613          	li	a2,8
    1520:	00040513          	mv	a0,s0
    1524:	009787b3          	add	a5,a5,s1
    1528:	0007a783          	lw	a5,0(a5)
    152c:	0247a783          	lw	a5,36(a5)
    1530:	0007a783          	lw	a5,0(a5)
    1534:	0007a583          	lw	a1,0(a5)
    1538:	b65fe0ef          	jal	9c <uart_send_hex>
    153c:	000065b7          	lui	a1,0x6
    1540:	00040513          	mv	a0,s0
    1544:	9b458593          	addi	a1,a1,-1612 # 59b4 <__modsi3+0x16c>
    1548:	c7dfe0ef          	jal	1c4 <uart_send>
    154c:	02c42783          	lw	a5,44(s0)
    1550:	00040513          	mv	a0,s0
    1554:	00800613          	li	a2,8
    1558:	009787b3          	add	a5,a5,s1
    155c:	0007a783          	lw	a5,0(a5)
    1560:	0287a783          	lw	a5,40(a5)
    1564:	0007a783          	lw	a5,0(a5)
    1568:	0007a583          	lw	a1,0(a5)
    156c:	b31fe0ef          	jal	9c <uart_send_hex>
    1570:	02c42783          	lw	a5,44(s0)
    1574:	00040513          	mv	a0,s0
    1578:	00800613          	li	a2,8
    157c:	009787b3          	add	a5,a5,s1
    1580:	0007a783          	lw	a5,0(a5)
    1584:	02c7a783          	lw	a5,44(a5)
    1588:	0007a783          	lw	a5,0(a5)
    158c:	0007a583          	lw	a1,0(a5)
    1590:	b0dfe0ef          	jal	9c <uart_send_hex>
    1594:	02c42783          	lw	a5,44(s0)
    1598:	00040513          	mv	a0,s0
    159c:	00800613          	li	a2,8
    15a0:	009787b3          	add	a5,a5,s1
    15a4:	0007a783          	lw	a5,0(a5)
    15a8:	0307a783          	lw	a5,48(a5)
    15ac:	0007a783          	lw	a5,0(a5)
    15b0:	0007a583          	lw	a1,0(a5)
    15b4:	ae9fe0ef          	jal	9c <uart_send_hex>
    15b8:	02c42783          	lw	a5,44(s0)
    15bc:	00040513          	mv	a0,s0
    15c0:	00800613          	li	a2,8
    15c4:	009787b3          	add	a5,a5,s1
    15c8:	0007a783          	lw	a5,0(a5)
    15cc:	0347a783          	lw	a5,52(a5)
    15d0:	0007a783          	lw	a5,0(a5)
    15d4:	0007a583          	lw	a1,0(a5)
    15d8:	ac5fe0ef          	jal	9c <uart_send_hex>
    15dc:	02c42783          	lw	a5,44(s0)
    15e0:	00040513          	mv	a0,s0
    15e4:	00800613          	li	a2,8
    15e8:	009787b3          	add	a5,a5,s1
    15ec:	0007a783          	lw	a5,0(a5)
    15f0:	0387a783          	lw	a5,56(a5)
    15f4:	0007a783          	lw	a5,0(a5)
    15f8:	0007a583          	lw	a1,0(a5)
    15fc:	aa1fe0ef          	jal	9c <uart_send_hex>
    1600:	02c42783          	lw	a5,44(s0)
    1604:	00040513          	mv	a0,s0
    1608:	00800613          	li	a2,8
    160c:	009787b3          	add	a5,a5,s1
    1610:	0007a783          	lw	a5,0(a5)
    1614:	03c7a783          	lw	a5,60(a5)
    1618:	0007a783          	lw	a5,0(a5)
    161c:	0007a583          	lw	a1,0(a5)
    1620:	a7dfe0ef          	jal	9c <uart_send_hex>
    1624:	02c42783          	lw	a5,44(s0)
    1628:	00040513          	mv	a0,s0
    162c:	00800613          	li	a2,8
    1630:	009787b3          	add	a5,a5,s1
    1634:	0007a783          	lw	a5,0(a5)
    1638:	0407a783          	lw	a5,64(a5)
    163c:	0007a783          	lw	a5,0(a5)
    1640:	0007a583          	lw	a1,0(a5)
    1644:	a59fe0ef          	jal	9c <uart_send_hex>
    1648:	02c42783          	lw	a5,44(s0)
    164c:	00800613          	li	a2,8
    1650:	00040513          	mv	a0,s0
    1654:	009787b3          	add	a5,a5,s1
    1658:	0007a783          	lw	a5,0(a5)
    165c:	0447a783          	lw	a5,68(a5)
    1660:	0007a783          	lw	a5,0(a5)
    1664:	0007a583          	lw	a1,0(a5)
    1668:	a35fe0ef          	jal	9c <uart_send_hex>
    166c:	000065b7          	lui	a1,0x6
    1670:	00040513          	mv	a0,s0
    1674:	9d058593          	addi	a1,a1,-1584 # 59d0 <__modsi3+0x188>
    1678:	b4dfe0ef          	jal	1c4 <uart_send>
    167c:	02c42783          	lw	a5,44(s0)
    1680:	00040513          	mv	a0,s0
    1684:	00800613          	li	a2,8
    1688:	009787b3          	add	a5,a5,s1
    168c:	0007a783          	lw	a5,0(a5)
    1690:	0487a783          	lw	a5,72(a5)
    1694:	0007a783          	lw	a5,0(a5)
    1698:	0007a583          	lw	a1,0(a5)
    169c:	a01fe0ef          	jal	9c <uart_send_hex>
    16a0:	02c42783          	lw	a5,44(s0)
    16a4:	00040513          	mv	a0,s0
    16a8:	00800613          	li	a2,8
    16ac:	009787b3          	add	a5,a5,s1
    16b0:	0007a783          	lw	a5,0(a5)
    16b4:	04c7a783          	lw	a5,76(a5)
    16b8:	0007a783          	lw	a5,0(a5)
    16bc:	0007a583          	lw	a1,0(a5)
    16c0:	9ddfe0ef          	jal	9c <uart_send_hex>
    16c4:	02c42783          	lw	a5,44(s0)
    16c8:	00040513          	mv	a0,s0
    16cc:	00800613          	li	a2,8
    16d0:	009787b3          	add	a5,a5,s1
    16d4:	0007a783          	lw	a5,0(a5)
    16d8:	0507a783          	lw	a5,80(a5)
    16dc:	0007a783          	lw	a5,0(a5)
    16e0:	0007a583          	lw	a1,0(a5)
    16e4:	9b9fe0ef          	jal	9c <uart_send_hex>
    16e8:	02c42783          	lw	a5,44(s0)
    16ec:	00040513          	mv	a0,s0
    16f0:	00800613          	li	a2,8
    16f4:	009787b3          	add	a5,a5,s1
    16f8:	0007a783          	lw	a5,0(a5)
    16fc:	0547a783          	lw	a5,84(a5)
    1700:	0007a783          	lw	a5,0(a5)
    1704:	0007a583          	lw	a1,0(a5)
    1708:	995fe0ef          	jal	9c <uart_send_hex>
    170c:	02c42783          	lw	a5,44(s0)
    1710:	00040513          	mv	a0,s0
    1714:	00800613          	li	a2,8
    1718:	009787b3          	add	a5,a5,s1
    171c:	0007a783          	lw	a5,0(a5)
    1720:	0587a783          	lw	a5,88(a5)
    1724:	0007a783          	lw	a5,0(a5)
    1728:	0007a583          	lw	a1,0(a5)
    172c:	971fe0ef          	jal	9c <uart_send_hex>
    1730:	02c42783          	lw	a5,44(s0)
    1734:	00040513          	mv	a0,s0
    1738:	00800613          	li	a2,8
    173c:	009787b3          	add	a5,a5,s1
    1740:	0007a783          	lw	a5,0(a5)
    1744:	05c7a783          	lw	a5,92(a5)
    1748:	0007a783          	lw	a5,0(a5)
    174c:	0007a583          	lw	a1,0(a5)
    1750:	94dfe0ef          	jal	9c <uart_send_hex>
    1754:	02c42783          	lw	a5,44(s0)
    1758:	00040513          	mv	a0,s0
    175c:	00800613          	li	a2,8
    1760:	009787b3          	add	a5,a5,s1
    1764:	0007a783          	lw	a5,0(a5)
    1768:	0607a783          	lw	a5,96(a5)
    176c:	0007a783          	lw	a5,0(a5)
    1770:	0007a583          	lw	a1,0(a5)
    1774:	929fe0ef          	jal	9c <uart_send_hex>
    1778:	02c42783          	lw	a5,44(s0)
    177c:	00800613          	li	a2,8
    1780:	00040513          	mv	a0,s0
    1784:	009787b3          	add	a5,a5,s1
    1788:	0007a783          	lw	a5,0(a5)
    178c:	0647a783          	lw	a5,100(a5)
    1790:	0007a783          	lw	a5,0(a5)
    1794:	0007a583          	lw	a1,0(a5)
    1798:	905fe0ef          	jal	9c <uart_send_hex>
    179c:	000065b7          	lui	a1,0x6
    17a0:	00040513          	mv	a0,s0
    17a4:	9ec58593          	addi	a1,a1,-1556 # 59ec <__modsi3+0x1a4>
    17a8:	a1dfe0ef          	jal	1c4 <uart_send>
    17ac:	02c42783          	lw	a5,44(s0)
    17b0:	00040513          	mv	a0,s0
    17b4:	00800613          	li	a2,8
    17b8:	009787b3          	add	a5,a5,s1
    17bc:	0007a783          	lw	a5,0(a5)
    17c0:	0687a783          	lw	a5,104(a5)
    17c4:	0007a783          	lw	a5,0(a5)
    17c8:	0007a583          	lw	a1,0(a5)
    17cc:	8d1fe0ef          	jal	9c <uart_send_hex>
    17d0:	02c42783          	lw	a5,44(s0)
    17d4:	00800613          	li	a2,8
    17d8:	00040513          	mv	a0,s0
    17dc:	009787b3          	add	a5,a5,s1
    17e0:	0007a783          	lw	a5,0(a5)
    17e4:	06c7a783          	lw	a5,108(a5)
    17e8:	0007a783          	lw	a5,0(a5)
    17ec:	0007a583          	lw	a1,0(a5)
    17f0:	8adfe0ef          	jal	9c <uart_send_hex>
    17f4:	000065b7          	lui	a1,0x6
    17f8:	00040513          	mv	a0,s0
    17fc:	a0458593          	addi	a1,a1,-1532 # 5a04 <__modsi3+0x1bc>
    1800:	9c5fe0ef          	jal	1c4 <uart_send>
    1804:	02c42783          	lw	a5,44(s0)
    1808:	00040513          	mv	a0,s0
    180c:	00800613          	li	a2,8
    1810:	009787b3          	add	a5,a5,s1
    1814:	0007a783          	lw	a5,0(a5)
    1818:	0707a783          	lw	a5,112(a5)
    181c:	0007a783          	lw	a5,0(a5)
    1820:	0007a583          	lw	a1,0(a5)
    1824:	879fe0ef          	jal	9c <uart_send_hex>
    1828:	02c42783          	lw	a5,44(s0)
    182c:	00040513          	mv	a0,s0
    1830:	00800613          	li	a2,8
    1834:	009787b3          	add	a5,a5,s1
    1838:	0007a783          	lw	a5,0(a5)
    183c:	0747a783          	lw	a5,116(a5)
    1840:	0007a783          	lw	a5,0(a5)
    1844:	0007a583          	lw	a1,0(a5)
    1848:	855fe0ef          	jal	9c <uart_send_hex>
    184c:	00040513          	mv	a0,s0
    1850:	01812403          	lw	s0,24(sp)
    1854:	01c12083          	lw	ra,28(sp)
    1858:	01412483          	lw	s1,20(sp)
    185c:	000065b7          	lui	a1,0x6
    1860:	d6c58593          	addi	a1,a1,-660 # 5d6c <__modsi3+0x524>
    1864:	02010113          	addi	sp,sp,32
    1868:	95dfe06f          	j	1c4 <uart_send>

0000186c <show_network(csr_vp_t volatile*, net_config_t*) [clone .constprop.0]>:
    186c:	000065b7          	lui	a1,0x6
    1870:	ff010113          	addi	sp,sp,-16
    1874:	a1c58593          	addi	a1,a1,-1508 # 5a1c <__modsi3+0x1d4>
    1878:	00112623          	sw	ra,12(sp)
    187c:	00812423          	sw	s0,8(sp)
    1880:	00912223          	sw	s1,4(sp)
    1884:	00050413          	mv	s0,a0
    1888:	93dfe0ef          	jal	1c4 <uart_send>
    188c:	000065b7          	lui	a1,0x6
    1890:	a3858593          	addi	a1,a1,-1480 # 5a38 <__modsi3+0x1f0>
    1894:	00040513          	mv	a0,s0
    1898:	92dfe0ef          	jal	1c4 <uart_send>
    189c:	100005b7          	lui	a1,0x10000
    18a0:	00058493          	mv	s1,a1
    18a4:	00040513          	mv	a0,s0
    18a8:	00058593          	mv	a1,a1
    18ac:	95dfe0ef          	jal	208 <uart_send_ip>
    18b0:	000065b7          	lui	a1,0x6
    18b4:	a5058593          	addi	a1,a1,-1456 # 5a50 <__modsi3+0x208>
    18b8:	00040513          	mv	a0,s0
    18bc:	909fe0ef          	jal	1c4 <uart_send>
    18c0:	00448593          	addi	a1,s1,4
    18c4:	00040513          	mv	a0,s0
    18c8:	941fe0ef          	jal	208 <uart_send_ip>
    18cc:	000065b7          	lui	a1,0x6
    18d0:	a6858593          	addi	a1,a1,-1432 # 5a68 <__modsi3+0x220>
    18d4:	00040513          	mv	a0,s0
    18d8:	8edfe0ef          	jal	1c4 <uart_send>
    18dc:	0084c583          	lbu	a1,8(s1)
    18e0:	00200613          	li	a2,2
    18e4:	00040513          	mv	a0,s0
    18e8:	fb4fe0ef          	jal	9c <uart_send_hex>
    18ec:	03a00593          	li	a1,58
    18f0:	00040513          	mv	a0,s0
    18f4:	f80fe0ef          	jal	74 <uart_send_char>
    18f8:	0094c583          	lbu	a1,9(s1)
    18fc:	00200613          	li	a2,2
    1900:	00040513          	mv	a0,s0
    1904:	f98fe0ef          	jal	9c <uart_send_hex>
    1908:	03a00593          	li	a1,58
    190c:	00040513          	mv	a0,s0
    1910:	f64fe0ef          	jal	74 <uart_send_char>
    1914:	00a4c583          	lbu	a1,10(s1)
    1918:	00200613          	li	a2,2
    191c:	00040513          	mv	a0,s0
    1920:	f7cfe0ef          	jal	9c <uart_send_hex>
    1924:	03a00593          	li	a1,58
    1928:	00040513          	mv	a0,s0
    192c:	f48fe0ef          	jal	74 <uart_send_char>
    1930:	00b4c583          	lbu	a1,11(s1)
    1934:	00200613          	li	a2,2
    1938:	00040513          	mv	a0,s0
    193c:	f60fe0ef          	jal	9c <uart_send_hex>
    1940:	03a00593          	li	a1,58
    1944:	00040513          	mv	a0,s0
    1948:	f2cfe0ef          	jal	74 <uart_send_char>
    194c:	00c4c583          	lbu	a1,12(s1)
    1950:	00200613          	li	a2,2
    1954:	00040513          	mv	a0,s0
    1958:	f44fe0ef          	jal	9c <uart_send_hex>
    195c:	03a00593          	li	a1,58
    1960:	00040513          	mv	a0,s0
    1964:	f10fe0ef          	jal	74 <uart_send_char>
    1968:	00d4c583          	lbu	a1,13(s1)
    196c:	00200613          	li	a2,2
    1970:	00040513          	mv	a0,s0
    1974:	f28fe0ef          	jal	9c <uart_send_hex>
    1978:	000065b7          	lui	a1,0x6
    197c:	a8058593          	addi	a1,a1,-1408 # 5a80 <__modsi3+0x238>
    1980:	00040513          	mv	a0,s0
    1984:	841fe0ef          	jal	1c4 <uart_send>
    1988:	00e48593          	addi	a1,s1,14
    198c:	00040513          	mv	a0,s0
    1990:	879fe0ef          	jal	208 <uart_send_ip>
    1994:	000065b7          	lui	a1,0x6
    1998:	a9858593          	addi	a1,a1,-1384 # 5a98 <__modsi3+0x250>
    199c:	00040513          	mv	a0,s0
    19a0:	825fe0ef          	jal	1c4 <uart_send>
    19a4:	0124c583          	lbu	a1,18(s1)
    19a8:	00040513          	mv	a0,s0
    19ac:	f5cfe0ef          	jal	108 <uart_send_dec>
    19b0:	0124c783          	lbu	a5,18(s1)
    19b4:	00700713          	li	a4,7
    19b8:	02f76663          	bltu	a4,a5,19e4 <show_network(csr_vp_t volatile*, net_config_t*) [clone .constprop.0]+0x178>
    19bc:	00006737          	lui	a4,0x6
    19c0:	00279793          	slli	a5,a5,0x2
    19c4:	7f870713          	addi	a4,a4,2040 # 67f8 <__modsi3+0xfb0>
    19c8:	00e787b3          	add	a5,a5,a4
    19cc:	0007a783          	lw	a5,0(a5)
    19d0:	00078067          	jr	a5
    19d4:	000065b7          	lui	a1,0x6
    19d8:	8d058593          	addi	a1,a1,-1840 # 58d0 <__modsi3+0x88>
    19dc:	00040513          	mv	a0,s0
    19e0:	fe4fe0ef          	jal	1c4 <uart_send>
    19e4:	00040513          	mv	a0,s0
    19e8:	00812403          	lw	s0,8(sp)
    19ec:	00c12083          	lw	ra,12(sp)
    19f0:	00412483          	lw	s1,4(sp)
    19f4:	000065b7          	lui	a1,0x6
    19f8:	d6c58593          	addi	a1,a1,-660 # 5d6c <__modsi3+0x524>
    19fc:	01010113          	addi	sp,sp,16
    1a00:	fc4fe06f          	j	1c4 <uart_send>
    1a04:	000065b7          	lui	a1,0x6
    1a08:	8dc58593          	addi	a1,a1,-1828 # 58dc <__modsi3+0x94>
    1a0c:	fd1ff06f          	j	19dc <show_network(csr_vp_t volatile*, net_config_t*) [clone .constprop.0]+0x170>
    1a10:	000065b7          	lui	a1,0x6
    1a14:	8e858593          	addi	a1,a1,-1816 # 58e8 <__modsi3+0xa0>
    1a18:	fc5ff06f          	j	19dc <show_network(csr_vp_t volatile*, net_config_t*) [clone .constprop.0]+0x170>
    1a1c:	000065b7          	lui	a1,0x6
    1a20:	8f458593          	addi	a1,a1,-1804 # 58f4 <__modsi3+0xac>
    1a24:	fb9ff06f          	j	19dc <show_network(csr_vp_t volatile*, net_config_t*) [clone .constprop.0]+0x170>
    1a28:	000065b7          	lui	a1,0x6
    1a2c:	90058593          	addi	a1,a1,-1792 # 5900 <__modsi3+0xb8>
    1a30:	fadff06f          	j	19dc <show_network(csr_vp_t volatile*, net_config_t*) [clone .constprop.0]+0x170>
    1a34:	000065b7          	lui	a1,0x6
    1a38:	90c58593          	addi	a1,a1,-1780 # 590c <__modsi3+0xc4>
    1a3c:	fa1ff06f          	j	19dc <show_network(csr_vp_t volatile*, net_config_t*) [clone .constprop.0]+0x170>
    1a40:	000065b7          	lui	a1,0x6
    1a44:	91858593          	addi	a1,a1,-1768 # 5918 <__modsi3+0xd0>
    1a48:	f95ff06f          	j	19dc <show_network(csr_vp_t volatile*, net_config_t*) [clone .constprop.0]+0x170>
    1a4c:	000065b7          	lui	a1,0x6
    1a50:	92458593          	addi	a1,a1,-1756 # 5924 <__modsi3+0xdc>
    1a54:	f89ff06f          	j	19dc <show_network(csr_vp_t volatile*, net_config_t*) [clone .constprop.0]+0x170>

00001a58 <str_parse_hex.constprop.0.isra.0>:
    1a58:	00054783          	lbu	a5,0(a0)
    1a5c:	00a00713          	li	a4,10
    1a60:	08e78063          	beq	a5,a4,1ae0 <str_parse_hex.constprop.0.isra.0+0x88>
    1a64:	06078e63          	beqz	a5,1ae0 <str_parse_hex.constprop.0.isra.0+0x88>
    1a68:	00000793          	li	a5,0
    1a6c:	00a00893          	li	a7,10
    1a70:	00900313          	li	t1,9
    1a74:	00500813          	li	a6,5
    1a78:	00054703          	lbu	a4,0(a0)
    1a7c:	05171063          	bne	a4,a7,1abc <str_parse_hex.constprop.0.isra.0+0x64>
    1a80:	04f67e63          	bgeu	a2,a5,1adc <str_parse_hex.constprop.0.isra.0+0x84>
    1a84:	00008067          	ret
    1a88:	fbf70693          	addi	a3,a4,-65
    1a8c:	0ff6f693          	zext.b	a3,a3
    1a90:	00d86a63          	bltu	a6,a3,1aa4 <str_parse_hex.constprop.0.isra.0+0x4c>
    1a94:	00479793          	slli	a5,a5,0x4
    1a98:	fc970713          	addi	a4,a4,-55
    1a9c:	00f767b3          	or	a5,a4,a5
    1aa0:	0340006f          	j	1ad4 <str_parse_hex.constprop.0.isra.0+0x7c>
    1aa4:	f9f70693          	addi	a3,a4,-97
    1aa8:	0ff6f693          	zext.b	a3,a3
    1aac:	02d86a63          	bltu	a6,a3,1ae0 <str_parse_hex.constprop.0.isra.0+0x88>
    1ab0:	00479793          	slli	a5,a5,0x4
    1ab4:	fa970713          	addi	a4,a4,-87
    1ab8:	fe5ff06f          	j	1a9c <str_parse_hex.constprop.0.isra.0+0x44>
    1abc:	fc0702e3          	beqz	a4,1a80 <str_parse_hex.constprop.0.isra.0+0x28>
    1ac0:	fd070693          	addi	a3,a4,-48
    1ac4:	0ff6fe13          	zext.b	t3,a3
    1ac8:	fdc360e3          	bltu	t1,t3,1a88 <str_parse_hex.constprop.0.isra.0+0x30>
    1acc:	00479793          	slli	a5,a5,0x4
    1ad0:	00f6e7b3          	or	a5,a3,a5
    1ad4:	00150513          	addi	a0,a0,1
    1ad8:	fa1ff06f          	j	1a78 <str_parse_hex.constprop.0.isra.0+0x20>
    1adc:	00f5a023          	sw	a5,0(a1)
    1ae0:	00008067          	ret

00001ae4 <x25519_scalarmult.isra.0>:
    1ae4:	93010113          	addi	sp,sp,-1744
    1ae8:	6c812423          	sw	s0,1736(sp)
    1aec:	6c112623          	sw	ra,1740(sp)
    1af0:	6c912223          	sw	s1,1732(sp)
    1af4:	6d212023          	sw	s2,1728(sp)
    1af8:	6b312e23          	sw	s3,1724(sp)
    1afc:	6b412c23          	sw	s4,1720(sp)
    1b00:	6b512a23          	sw	s5,1716(sp)
    1b04:	6b612823          	sw	s6,1712(sp)
    1b08:	6b712623          	sw	s7,1708(sp)
    1b0c:	00050413          	mv	s0,a0
    1b10:	00000793          	li	a5,0
    1b14:	01f00713          	li	a4,31
    1b18:	00f58533          	add	a0,a1,a5
    1b1c:	00054503          	lbu	a0,0(a0)
    1b20:	00f106b3          	add	a3,sp,a5
    1b24:	00178793          	addi	a5,a5,1
    1b28:	00a68023          	sb	a0,0(a3)
    1b2c:	fee796e3          	bne	a5,a4,1b18 <x25519_scalarmult.isra.0+0x34>
    1b30:	01f5c783          	lbu	a5,31(a1)
    1b34:	42010493          	addi	s1,sp,1056
    1b38:	02060593          	addi	a1,a2,32
    1b3c:	03f7f793          	andi	a5,a5,63
    1b40:	0407e793          	ori	a5,a5,64
    1b44:	00f10fa3          	sb	a5,31(sp)
    1b48:	00014783          	lbu	a5,0(sp)
    1b4c:	00048713          	mv	a4,s1
    1b50:	ff87f793          	andi	a5,a5,-8
    1b54:	00f10023          	sb	a5,0(sp)
    1b58:	00164783          	lbu	a5,1(a2)
    1b5c:	00064683          	lbu	a3,0(a2)
    1b60:	00260613          	addi	a2,a2,2
    1b64:	00879793          	slli	a5,a5,0x8
    1b68:	00d786b3          	add	a3,a5,a3
    1b6c:	00f6b7b3          	sltu	a5,a3,a5
    1b70:	00d72023          	sw	a3,0(a4)
    1b74:	00f72223          	sw	a5,4(a4)
    1b78:	00870713          	addi	a4,a4,8
    1b7c:	fcb61ee3          	bne	a2,a1,1b58 <x25519_scalarmult.isra.0+0x74>
    1b80:	49812783          	lw	a5,1176(sp)
    1b84:	48012e23          	sw	zero,1180(sp)
    1b88:	08000713          	li	a4,128
    1b8c:	01179793          	slli	a5,a5,0x11
    1b90:	0117d793          	srli	a5,a5,0x11
    1b94:	48f12c23          	sw	a5,1176(sp)
    1b98:	00000793          	li	a5,0
    1b9c:	00f48633          	add	a2,s1,a5
    1ba0:	00462583          	lw	a1,4(a2)
    1ba4:	00062503          	lw	a0,0(a2)
    1ba8:	0a010693          	addi	a3,sp,160
    1bac:	00f686b3          	add	a3,a3,a5
    1bb0:	00b6a223          	sw	a1,4(a3)
    1bb4:	00a6a023          	sw	a0,0(a3)
    1bb8:	12010693          	addi	a3,sp,288
    1bbc:	00f686b3          	add	a3,a3,a5
    1bc0:	00000593          	li	a1,0
    1bc4:	00000613          	li	a2,0
    1bc8:	00b6a023          	sw	a1,0(a3)
    1bcc:	00c6a223          	sw	a2,4(a3)
    1bd0:	02010693          	addi	a3,sp,32
    1bd4:	00f686b3          	add	a3,a3,a5
    1bd8:	00b6a023          	sw	a1,0(a3)
    1bdc:	00c6a223          	sw	a2,4(a3)
    1be0:	1a010693          	addi	a3,sp,416
    1be4:	00f686b3          	add	a3,a3,a5
    1be8:	00b6a023          	sw	a1,0(a3)
    1bec:	00c6a223          	sw	a2,4(a3)
    1bf0:	00878793          	addi	a5,a5,8
    1bf4:	fae794e3          	bne	a5,a4,1b9c <x25519_scalarmult.isra.0+0xb8>
    1bf8:	00100713          	li	a4,1
    1bfc:	00000793          	li	a5,0
    1c00:	00007ab7          	lui	s5,0x7
    1c04:	1ae12023          	sw	a4,416(sp)
    1c08:	1af12223          	sw	a5,420(sp)
    1c0c:	02e12023          	sw	a4,32(sp)
    1c10:	02f12223          	sw	a5,36(sp)
    1c14:	0fe00993          	li	s3,254
    1c18:	00000a13          	li	s4,0
    1c1c:	8d8a8a93          	addi	s5,s5,-1832 # 68d8 <_121665>
    1c20:	fff00b13          	li	s6,-1
    1c24:	01da1713          	slli	a4,s4,0x1d
    1c28:	0039d793          	srli	a5,s3,0x3
    1c2c:	00f767b3          	or	a5,a4,a5
    1c30:	6a078793          	addi	a5,a5,1696
    1c34:	002787b3          	add	a5,a5,sp
    1c38:	9607c903          	lbu	s2,-1696(a5)
    1c3c:	0079f793          	andi	a5,s3,7
    1c40:	0a010593          	addi	a1,sp,160
    1c44:	40f95933          	sra	s2,s2,a5
    1c48:	00197913          	andi	s2,s2,1
    1c4c:	00090613          	mv	a2,s2
    1c50:	02010513          	addi	a0,sp,32
    1c54:	bc9fe0ef          	jal	81c <sel25519(long long*, long long*, int)>
    1c58:	00090613          	mv	a2,s2
    1c5c:	1a010593          	addi	a1,sp,416
    1c60:	12010513          	addi	a0,sp,288
    1c64:	bb9fe0ef          	jal	81c <sel25519(long long*, long long*, int)>
    1c68:	12010613          	addi	a2,sp,288
    1c6c:	02010593          	addi	a1,sp,32
    1c70:	22010513          	addi	a0,sp,544
    1c74:	c6dfe0ef          	jal	8e0 <A(long long*, long long const*, long long const*)>
    1c78:	02010593          	addi	a1,sp,32
    1c7c:	00058513          	mv	a0,a1
    1c80:	12010613          	addi	a2,sp,288
    1c84:	ca5fe0ef          	jal	928 <Z(long long*, long long const*, long long const*)>
    1c88:	1a010613          	addi	a2,sp,416
    1c8c:	0a010593          	addi	a1,sp,160
    1c90:	12010513          	addi	a0,sp,288
    1c94:	c4dfe0ef          	jal	8e0 <A(long long*, long long const*, long long const*)>
    1c98:	0a010593          	addi	a1,sp,160
    1c9c:	00058513          	mv	a0,a1
    1ca0:	1a010613          	addi	a2,sp,416
    1ca4:	c85fe0ef          	jal	928 <Z(long long*, long long const*, long long const*)>
    1ca8:	22010613          	addi	a2,sp,544
    1cac:	00060593          	mv	a1,a2
    1cb0:	1a010513          	addi	a0,sp,416
    1cb4:	cbdfe0ef          	jal	970 <M(long long*, long long const*, long long const*)>
    1cb8:	02010613          	addi	a2,sp,32
    1cbc:	00060593          	mv	a1,a2
    1cc0:	2a010513          	addi	a0,sp,672
    1cc4:	cadfe0ef          	jal	970 <M(long long*, long long const*, long long const*)>
    1cc8:	02010613          	addi	a2,sp,32
    1ccc:	00060513          	mv	a0,a2
    1cd0:	12010593          	addi	a1,sp,288
    1cd4:	c9dfe0ef          	jal	970 <M(long long*, long long const*, long long const*)>
    1cd8:	22010613          	addi	a2,sp,544
    1cdc:	0a010593          	addi	a1,sp,160
    1ce0:	12010513          	addi	a0,sp,288
    1ce4:	c8dfe0ef          	jal	970 <M(long long*, long long const*, long long const*)>
    1ce8:	12010613          	addi	a2,sp,288
    1cec:	02010593          	addi	a1,sp,32
    1cf0:	22010513          	addi	a0,sp,544
    1cf4:	bedfe0ef          	jal	8e0 <A(long long*, long long const*, long long const*)>
    1cf8:	02010593          	addi	a1,sp,32
    1cfc:	00058513          	mv	a0,a1
    1d00:	12010613          	addi	a2,sp,288
    1d04:	c25fe0ef          	jal	928 <Z(long long*, long long const*, long long const*)>
    1d08:	02010613          	addi	a2,sp,32
    1d0c:	00060593          	mv	a1,a2
    1d10:	0a010513          	addi	a0,sp,160
    1d14:	c5dfe0ef          	jal	970 <M(long long*, long long const*, long long const*)>
    1d18:	2a010613          	addi	a2,sp,672
    1d1c:	1a010593          	addi	a1,sp,416
    1d20:	12010513          	addi	a0,sp,288
    1d24:	c05fe0ef          	jal	928 <Z(long long*, long long const*, long long const*)>
    1d28:	000a8613          	mv	a2,s5
    1d2c:	12010593          	addi	a1,sp,288
    1d30:	02010513          	addi	a0,sp,32
    1d34:	c3dfe0ef          	jal	970 <M(long long*, long long const*, long long const*)>
    1d38:	02010593          	addi	a1,sp,32
    1d3c:	00058513          	mv	a0,a1
    1d40:	1a010613          	addi	a2,sp,416
    1d44:	b9dfe0ef          	jal	8e0 <A(long long*, long long const*, long long const*)>
    1d48:	12010593          	addi	a1,sp,288
    1d4c:	00058513          	mv	a0,a1
    1d50:	02010613          	addi	a2,sp,32
    1d54:	c1dfe0ef          	jal	970 <M(long long*, long long const*, long long const*)>
    1d58:	2a010613          	addi	a2,sp,672
    1d5c:	1a010593          	addi	a1,sp,416
    1d60:	02010513          	addi	a0,sp,32
    1d64:	c0dfe0ef          	jal	970 <M(long long*, long long const*, long long const*)>
    1d68:	00048613          	mv	a2,s1
    1d6c:	0a010593          	addi	a1,sp,160
    1d70:	1a010513          	addi	a0,sp,416
    1d74:	bfdfe0ef          	jal	970 <M(long long*, long long const*, long long const*)>
    1d78:	22010613          	addi	a2,sp,544
    1d7c:	00060593          	mv	a1,a2
    1d80:	0a010513          	addi	a0,sp,160
    1d84:	bedfe0ef          	jal	970 <M(long long*, long long const*, long long const*)>
    1d88:	00090613          	mv	a2,s2
    1d8c:	0a010593          	addi	a1,sp,160
    1d90:	02010513          	addi	a0,sp,32
    1d94:	a89fe0ef          	jal	81c <sel25519(long long*, long long*, int)>
    1d98:	00090613          	mv	a2,s2
    1d9c:	1a010593          	addi	a1,sp,416
    1da0:	12010513          	addi	a0,sp,288
    1da4:	a79fe0ef          	jal	81c <sel25519(long long*, long long*, int)>
    1da8:	0019b793          	seqz	a5,s3
    1dac:	fff98993          	addi	s3,s3,-1
    1db0:	40fa0a33          	sub	s4,s4,a5
    1db4:	e76998e3          	bne	s3,s6,1c24 <x25519_scalarmult.isra.0+0x140>
    1db8:	e73a16e3          	bne	s4,s3,1c24 <x25519_scalarmult.isra.0+0x140>
    1dbc:	00048713          	mv	a4,s1
    1dc0:	00000793          	li	a5,0
    1dc4:	08000693          	li	a3,128
    1dc8:	02010613          	addi	a2,sp,32
    1dcc:	00f60633          	add	a2,a2,a5
    1dd0:	00062503          	lw	a0,0(a2)
    1dd4:	00462583          	lw	a1,4(a2)
    1dd8:	12010613          	addi	a2,sp,288
    1ddc:	00f60633          	add	a2,a2,a5
    1de0:	08a72023          	sw	a0,128(a4)
    1de4:	08b72223          	sw	a1,132(a4)
    1de8:	00062503          	lw	a0,0(a2)
    1dec:	00462583          	lw	a1,4(a2)
    1df0:	0a010613          	addi	a2,sp,160
    1df4:	00f60633          	add	a2,a2,a5
    1df8:	10a72023          	sw	a0,256(a4)
    1dfc:	10b72223          	sw	a1,260(a4)
    1e00:	00062503          	lw	a0,0(a2)
    1e04:	00462583          	lw	a1,4(a2)
    1e08:	1a010613          	addi	a2,sp,416
    1e0c:	00f60633          	add	a2,a2,a5
    1e10:	18a72023          	sw	a0,384(a4)
    1e14:	18b72223          	sw	a1,388(a4)
    1e18:	00062503          	lw	a0,0(a2)
    1e1c:	00462583          	lw	a1,4(a2)
    1e20:	00878793          	addi	a5,a5,8
    1e24:	20a72023          	sw	a0,512(a4)
    1e28:	20b72223          	sw	a1,516(a4)
    1e2c:	00870713          	addi	a4,a4,8
    1e30:	f8d79ce3          	bne	a5,a3,1dc8 <x25519_scalarmult.isra.0+0x2e4>
    1e34:	00048713          	mv	a4,s1
    1e38:	00000793          	li	a5,0
    1e3c:	08000693          	li	a3,128
    1e40:	10072503          	lw	a0,256(a4)
    1e44:	10472583          	lw	a1,260(a4)
    1e48:	3a010613          	addi	a2,sp,928
    1e4c:	00f60633          	add	a2,a2,a5
    1e50:	00a62023          	sw	a0,0(a2)
    1e54:	00b62223          	sw	a1,4(a2)
    1e58:	00878793          	addi	a5,a5,8
    1e5c:	00870713          	addi	a4,a4,8
    1e60:	fed790e3          	bne	a5,a3,1e40 <x25519_scalarmult.isra.0+0x35c>
    1e64:	0fb00913          	li	s2,251
    1e68:	ffd00993          	li	s3,-3
    1e6c:	3a010613          	addi	a2,sp,928
    1e70:	00060593          	mv	a1,a2
    1e74:	00060513          	mv	a0,a2
    1e78:	af9fe0ef          	jal	970 <M(long long*, long long const*, long long const*)>
    1e7c:	ffd97793          	andi	a5,s2,-3
    1e80:	fff90913          	addi	s2,s2,-1
    1e84:	fe0784e3          	beqz	a5,1e6c <x25519_scalarmult.isra.0+0x388>
    1e88:	3a010593          	addi	a1,sp,928
    1e8c:	52010613          	addi	a2,sp,1312
    1e90:	00058513          	mv	a0,a1
    1e94:	addfe0ef          	jal	970 <M(long long*, long long const*, long long const*)>
    1e98:	fd391ae3          	bne	s2,s3,1e6c <x25519_scalarmult.isra.0+0x388>
    1e9c:	00048713          	mv	a4,s1
    1ea0:	00000793          	li	a5,0
    1ea4:	08000693          	li	a3,128
    1ea8:	3a010613          	addi	a2,sp,928
    1eac:	00f60633          	add	a2,a2,a5
    1eb0:	00062503          	lw	a0,0(a2)
    1eb4:	00462583          	lw	a1,4(a2)
    1eb8:	00878793          	addi	a5,a5,8
    1ebc:	10a72023          	sw	a0,256(a4)
    1ec0:	10b72223          	sw	a1,260(a4)
    1ec4:	00870713          	addi	a4,a4,8
    1ec8:	fed790e3          	bne	a5,a3,1ea8 <x25519_scalarmult.isra.0+0x3c4>
    1ecc:	4a010593          	addi	a1,sp,1184
    1ed0:	52010613          	addi	a2,sp,1312
    1ed4:	00058513          	mv	a0,a1
    1ed8:	a99fe0ef          	jal	970 <M(long long*, long long const*, long long const*)>
    1edc:	00000793          	li	a5,0
    1ee0:	08000713          	li	a4,128
    1ee4:	0804a503          	lw	a0,128(s1)
    1ee8:	0844a583          	lw	a1,132(s1)
    1eec:	3a010693          	addi	a3,sp,928
    1ef0:	00f686b3          	add	a3,a3,a5
    1ef4:	00a6a023          	sw	a0,0(a3)
    1ef8:	00b6a223          	sw	a1,4(a3)
    1efc:	00878793          	addi	a5,a5,8
    1f00:	00848493          	addi	s1,s1,8
    1f04:	fee790e3          	bne	a5,a4,1ee4 <x25519_scalarmult.isra.0+0x400>
    1f08:	3a010513          	addi	a0,sp,928
    1f0c:	fb0fe0ef          	jal	6bc <car25519(long long*)>
    1f10:	3a010513          	addi	a0,sp,928
    1f14:	fa8fe0ef          	jal	6bc <car25519(long long*)>
    1f18:	3a010513          	addi	a0,sp,928
    1f1c:	ffff09b7          	lui	s3,0xffff0
    1f20:	ffff0a37          	lui	s4,0xffff0
    1f24:	000104b7          	lui	s1,0x10
    1f28:	ffff8937          	lui	s2,0xffff8
    1f2c:	f90fe0ef          	jal	6bc <car25519(long long*)>
    1f30:	00200a93          	li	s5,2
    1f34:	01398993          	addi	s3,s3,19 # ffff0013 <_stack_start+0xeffe0013>
    1f38:	001a0a13          	addi	s4,s4,1 # ffff0001 <_stack_start+0xeffe0001>
    1f3c:	fff48493          	addi	s1,s1,-1 # ffff <_idata_start+0x9633>
    1f40:	07800b93          	li	s7,120
    1f44:	00190913          	addi	s2,s2,1 # ffff8001 <_stack_start+0xeffe8001>
    1f48:	00100b13          	li	s6,1
    1f4c:	3a012783          	lw	a5,928(sp)
    1f50:	3a412703          	lw	a4,932(sp)
    1f54:	00800513          	li	a0,8
    1f58:	013786b3          	add	a3,a5,s3
    1f5c:	00f6b7b3          	sltu	a5,a3,a5
    1f60:	fff70713          	addi	a4,a4,-1
    1f64:	00e787b3          	add	a5,a5,a4
    1f68:	32f12223          	sw	a5,804(sp)
    1f6c:	32010793          	addi	a5,sp,800
    1f70:	32d12023          	sw	a3,800(sp)
    1f74:	00078593          	mv	a1,a5
    1f78:	3a010713          	addi	a4,sp,928
    1f7c:	00a706b3          	add	a3,a4,a0
    1f80:	0006a703          	lw	a4,0(a3)
    1f84:	0046a683          	lw	a3,4(a3)
    1f88:	0007a803          	lw	a6,0(a5)
    1f8c:	01470633          	add	a2,a4,s4
    1f90:	00e63733          	sltu	a4,a2,a4
    1f94:	fff68693          	addi	a3,a3,-1
    1f98:	00d70733          	add	a4,a4,a3
    1f9c:	01085693          	srli	a3,a6,0x10
    1fa0:	0016f693          	andi	a3,a3,1
    1fa4:	40d606b3          	sub	a3,a2,a3
    1fa8:	00d63633          	sltu	a2,a2,a3
    1fac:	40c70733          	sub	a4,a4,a2
    1fb0:	00987833          	and	a6,a6,s1
    1fb4:	00d7a423          	sw	a3,8(a5)
    1fb8:	00e7a623          	sw	a4,12(a5)
    1fbc:	0107a023          	sw	a6,0(a5)
    1fc0:	0007a223          	sw	zero,4(a5)
    1fc4:	00850513          	addi	a0,a0,8
    1fc8:	00878793          	addi	a5,a5,8
    1fcc:	fb7516e3          	bne	a0,s7,1f78 <x25519_scalarmult.isra.0+0x494>
    1fd0:	41812783          	lw	a5,1048(sp)
    1fd4:	41c12603          	lw	a2,1052(sp)
    1fd8:	39012683          	lw	a3,912(sp)
    1fdc:	01278733          	add	a4,a5,s2
    1fe0:	00f737b3          	sltu	a5,a4,a5
    1fe4:	fff60613          	addi	a2,a2,-1
    1fe8:	00c787b3          	add	a5,a5,a2
    1fec:	0106d613          	srli	a2,a3,0x10
    1ff0:	00167613          	andi	a2,a2,1
    1ff4:	40c70633          	sub	a2,a4,a2
    1ff8:	00c73733          	sltu	a4,a4,a2
    1ffc:	40e787b3          	sub	a5,a5,a4
    2000:	38c12c23          	sw	a2,920(sp)
    2004:	38f12e23          	sw	a5,924(sp)
    2008:	01065613          	srli	a2,a2,0x10
    200c:	01079793          	slli	a5,a5,0x10
    2010:	00c7e633          	or	a2,a5,a2
    2014:	fff64613          	not	a2,a2
    2018:	0096f6b3          	and	a3,a3,s1
    201c:	00167613          	andi	a2,a2,1
    2020:	3a010513          	addi	a0,sp,928
    2024:	38d12823          	sw	a3,912(sp)
    2028:	38012a23          	sw	zero,916(sp)
    202c:	ff0fe0ef          	jal	81c <sel25519(long long*, long long*, int)>
    2030:	056a9a63          	bne	s5,s6,2084 <x25519_scalarmult.isra.0+0x5a0>
    2034:	3a010793          	addi	a5,sp,928
    2038:	02040693          	addi	a3,s0,32
    203c:	0007a703          	lw	a4,0(a5)
    2040:	00240413          	addi	s0,s0,2
    2044:	00878793          	addi	a5,a5,8
    2048:	fee40f23          	sb	a4,-2(s0)
    204c:	00875713          	srli	a4,a4,0x8
    2050:	fee40fa3          	sb	a4,-1(s0)
    2054:	fe8694e3          	bne	a3,s0,203c <x25519_scalarmult.isra.0+0x558>
    2058:	6cc12083          	lw	ra,1740(sp)
    205c:	6c812403          	lw	s0,1736(sp)
    2060:	6c412483          	lw	s1,1732(sp)
    2064:	6c012903          	lw	s2,1728(sp)
    2068:	6bc12983          	lw	s3,1724(sp)
    206c:	6b812a03          	lw	s4,1720(sp)
    2070:	6b412a83          	lw	s5,1716(sp)
    2074:	6b012b03          	lw	s6,1712(sp)
    2078:	6ac12b83          	lw	s7,1708(sp)
    207c:	6d010113          	addi	sp,sp,1744
    2080:	00008067          	ret
    2084:	00100a93          	li	s5,1
    2088:	ec5ff06f          	j	1f4c <x25519_scalarmult.isra.0+0x468>

0000208c <net_str_parse_ip.isra.0>:
    208c:	ff010113          	addi	sp,sp,-16
    2090:	00012623          	sw	zero,12(sp)
    2094:	00000793          	li	a5,0
    2098:	00000713          	li	a4,0
    209c:	00a00813          	li	a6,10
    20a0:	00900893          	li	a7,9
    20a4:	02e00313          	li	t1,46
    20a8:	00200e13          	li	t3,2
    20ac:	0ff00e93          	li	t4,255
    20b0:	00054683          	lbu	a3,0(a0)
    20b4:	05069863          	bne	a3,a6,2104 <net_str_parse_ip.isra.0+0x78>
    20b8:	00300693          	li	a3,3
    20bc:	06d71663          	bne	a4,a3,2128 <net_str_parse_ip.isra.0+0x9c>
    20c0:	00c14703          	lbu	a4,12(sp)
    20c4:	00f581a3          	sb	a5,3(a1)
    20c8:	00e58023          	sb	a4,0(a1)
    20cc:	00d14703          	lbu	a4,13(sp)
    20d0:	00e580a3          	sb	a4,1(a1)
    20d4:	00e14703          	lbu	a4,14(sp)
    20d8:	00e58123          	sb	a4,2(a1)
    20dc:	04c0006f          	j	2128 <net_str_parse_ip.isra.0+0x9c>
    20e0:	04669463          	bne	a3,t1,2128 <net_str_parse_ip.isra.0+0x9c>
    20e4:	04ee4263          	blt	t3,a4,2128 <net_str_parse_ip.isra.0+0x9c>
    20e8:	01070693          	addi	a3,a4,16
    20ec:	002686b3          	add	a3,a3,sp
    20f0:	fef68e23          	sb	a5,-4(a3)
    20f4:	00170713          	addi	a4,a4,1
    20f8:	00000793          	li	a5,0
    20fc:	00150513          	addi	a0,a0,1
    2100:	fb1ff06f          	j	20b0 <net_str_parse_ip.isra.0+0x24>
    2104:	fa068ae3          	beqz	a3,20b8 <net_str_parse_ip.isra.0+0x2c>
    2108:	fd068613          	addi	a2,a3,-48
    210c:	0ff67f13          	zext.b	t5,a2
    2110:	fde8e8e3          	bltu	a7,t5,20e0 <net_str_parse_ip.isra.0+0x54>
    2114:	00279693          	slli	a3,a5,0x2
    2118:	00f687b3          	add	a5,a3,a5
    211c:	00179793          	slli	a5,a5,0x1
    2120:	00f607b3          	add	a5,a2,a5
    2124:	fcfedce3          	bge	t4,a5,20fc <net_str_parse_ip.isra.0+0x70>
    2128:	01010113          	addi	sp,sp,16
    212c:	00008067          	ret

00002130 <eth_send_packet.isra.0>:
    2130:	00052783          	lw	a5,0(a0)
    2134:	0007a783          	lw	a5,0(a5)
    2138:	0187a783          	lw	a5,24(a5)
    213c:	0007a783          	lw	a5,0(a5)
    2140:	0007a783          	lw	a5,0(a5)
    2144:	0017f793          	andi	a5,a5,1
    2148:	1e078e63          	beqz	a5,2344 <eth_send_packet.isra.0+0x214>
    214c:	00052783          	lw	a5,0(a0)
    2150:	0005c703          	lbu	a4,0(a1)
    2154:	ffff8637          	lui	a2,0xffff8
    2158:	0007a783          	lw	a5,0(a5)
    215c:	00777713          	andi	a4,a4,7
    2160:	ffff08b7          	lui	a7,0xffff0
    2164:	0107a783          	lw	a5,16(a5)
    2168:	fff60613          	addi	a2,a2,-1 # ffff7fff <_stack_start+0xeffe7fff>
    216c:	0007a683          	lw	a3,0(a5)
    2170:	0006a783          	lw	a5,0(a3)
    2174:	ff87f793          	andi	a5,a5,-8
    2178:	00e7e7b3          	or	a5,a5,a4
    217c:	00f6a023          	sw	a5,0(a3)
    2180:	00052783          	lw	a5,0(a0)
    2184:	0015c703          	lbu	a4,1(a1)
    2188:	0007a783          	lw	a5,0(a5)
    218c:	00777713          	andi	a4,a4,7
    2190:	00371713          	slli	a4,a4,0x3
    2194:	0107a783          	lw	a5,16(a5)
    2198:	0007a683          	lw	a3,0(a5)
    219c:	0006a783          	lw	a5,0(a3)
    21a0:	fc77f793          	andi	a5,a5,-57
    21a4:	00e7e7b3          	or	a5,a5,a4
    21a8:	00f6a023          	sw	a5,0(a3)
    21ac:	00052783          	lw	a5,0(a0)
    21b0:	0025c703          	lbu	a4,2(a1)
    21b4:	0007a783          	lw	a5,0(a5)
    21b8:	00177713          	andi	a4,a4,1
    21bc:	00671713          	slli	a4,a4,0x6
    21c0:	0107a783          	lw	a5,16(a5)
    21c4:	0007a683          	lw	a3,0(a5)
    21c8:	0006a783          	lw	a5,0(a3)
    21cc:	fbf7f793          	andi	a5,a5,-65
    21d0:	00e7e7b3          	or	a5,a5,a4
    21d4:	00f6a023          	sw	a5,0(a3)
    21d8:	00052783          	lw	a5,0(a0)
    21dc:	0035c703          	lbu	a4,3(a1)
    21e0:	0007a783          	lw	a5,0(a5)
    21e4:	00177713          	andi	a4,a4,1
    21e8:	00771713          	slli	a4,a4,0x7
    21ec:	0107a783          	lw	a5,16(a5)
    21f0:	0007a683          	lw	a3,0(a5)
    21f4:	0006a783          	lw	a5,0(a3)
    21f8:	f7f7f793          	andi	a5,a5,-129
    21fc:	00e7e7b3          	or	a5,a5,a4
    2200:	00f6a023          	sw	a5,0(a3)
    2204:	00858713          	addi	a4,a1,8
    2208:	00000793          	li	a5,0
    220c:	00052683          	lw	a3,0(a0)
    2210:	00072803          	lw	a6,0(a4)
    2214:	01078793          	addi	a5,a5,16
    2218:	0006a683          	lw	a3,0(a3)
    221c:	01070713          	addi	a4,a4,16
    2220:	0006a683          	lw	a3,0(a3)
    2224:	0006a683          	lw	a3,0(a3)
    2228:	0106a023          	sw	a6,0(a3)
    222c:	00052683          	lw	a3,0(a0)
    2230:	ff472803          	lw	a6,-12(a4)
    2234:	0006a683          	lw	a3,0(a3)
    2238:	0046a683          	lw	a3,4(a3)
    223c:	0006a683          	lw	a3,0(a3)
    2240:	0106a023          	sw	a6,0(a3)
    2244:	00052683          	lw	a3,0(a0)
    2248:	ff872803          	lw	a6,-8(a4)
    224c:	0006a683          	lw	a3,0(a3)
    2250:	0086a683          	lw	a3,8(a3)
    2254:	0006a683          	lw	a3,0(a3)
    2258:	0106a023          	sw	a6,0(a3)
    225c:	00052683          	lw	a3,0(a0)
    2260:	ffc72803          	lw	a6,-4(a4)
    2264:	0006a683          	lw	a3,0(a3)
    2268:	00c6a683          	lw	a3,12(a3)
    226c:	0006a683          	lw	a3,0(a3)
    2270:	0106a023          	sw	a6,0(a3)
    2274:	0045a683          	lw	a3,4(a1)
    2278:	04d7fe63          	bgeu	a5,a3,22d4 <eth_send_packet.isra.0+0x1a4>
    227c:	00052683          	lw	a3,0(a0)
    2280:	0006a683          	lw	a3,0(a3)
    2284:	0106a683          	lw	a3,16(a3)
    2288:	0006a803          	lw	a6,0(a3)
    228c:	00082683          	lw	a3,0(a6)
    2290:	0116e6b3          	or	a3,a3,a7
    2294:	00d82023          	sw	a3,0(a6)
    2298:	00052683          	lw	a3,0(a0)
    229c:	0006a683          	lw	a3,0(a3)
    22a0:	0106a683          	lw	a3,16(a3)
    22a4:	0006a803          	lw	a6,0(a3)
    22a8:	00082683          	lw	a3,0(a6)
    22ac:	00c6f6b3          	and	a3,a3,a2
    22b0:	00d82023          	sw	a3,0(a6)
    22b4:	00052683          	lw	a3,0(a0)
    22b8:	0006a683          	lw	a3,0(a3)
    22bc:	0146a683          	lw	a3,20(a3)
    22c0:	0006a803          	lw	a6,0(a3)
    22c4:	00082683          	lw	a3,0(a6)
    22c8:	0016e693          	ori	a3,a3,1
    22cc:	00d82023          	sw	a3,0(a6)
    22d0:	f3dff06f          	j	220c <eth_send_packet.isra.0+0xdc>
    22d4:	00052703          	lw	a4,0(a0)
    22d8:	40d787b3          	sub	a5,a5,a3
    22dc:	000106b7          	lui	a3,0x10
    22e0:	00072703          	lw	a4,0(a4)
    22e4:	fff68693          	addi	a3,a3,-1 # ffff <_idata_start+0x9633>
    22e8:	40f6d7b3          	sra	a5,a3,a5
    22ec:	01072703          	lw	a4,16(a4)
    22f0:	01079793          	slli	a5,a5,0x10
    22f4:	00072603          	lw	a2,0(a4)
    22f8:	00062703          	lw	a4,0(a2)
    22fc:	00d77733          	and	a4,a4,a3
    2300:	00f767b3          	or	a5,a4,a5
    2304:	00f62023          	sw	a5,0(a2)
    2308:	00052783          	lw	a5,0(a0)
    230c:	000086b7          	lui	a3,0x8
    2310:	0007a783          	lw	a5,0(a5)
    2314:	0107a783          	lw	a5,16(a5)
    2318:	0007a703          	lw	a4,0(a5)
    231c:	00072783          	lw	a5,0(a4)
    2320:	00d7e7b3          	or	a5,a5,a3
    2324:	00f72023          	sw	a5,0(a4)
    2328:	00052783          	lw	a5,0(a0)
    232c:	0007a783          	lw	a5,0(a5)
    2330:	0147a783          	lw	a5,20(a5)
    2334:	0007a703          	lw	a4,0(a5)
    2338:	00072783          	lw	a5,0(a4)
    233c:	0017e793          	ori	a5,a5,1
    2340:	00f72023          	sw	a5,0(a4)
    2344:	00008067          	ret

00002348 <hash.constprop.0.isra.0>:
    2348:	bb67b7b7          	lui	a5,0xbb67b
    234c:	f7010113          	addi	sp,sp,-144
    2350:	e8578793          	addi	a5,a5,-379 # bb67ae85 <_stack_start+0xab66ae85>
    2354:	04f12223          	sw	a5,68(sp)
    2358:	3c6ef7b7          	lui	a5,0x3c6ef
    235c:	37278793          	addi	a5,a5,882 # 3c6ef372 <_stack_start+0x2c6df372>
    2360:	04f12423          	sw	a5,72(sp)
    2364:	a54ff7b7          	lui	a5,0xa54ff
    2368:	53a78793          	addi	a5,a5,1338 # a54ff53a <_stack_start+0x954ef53a>
    236c:	04f12623          	sw	a5,76(sp)
    2370:	510e57b7          	lui	a5,0x510e5
    2374:	27f78793          	addi	a5,a5,639 # 510e527f <_stack_start+0x410d527f>
    2378:	04f12823          	sw	a5,80(sp)
    237c:	9b0577b7          	lui	a5,0x9b057
    2380:	88c78793          	addi	a5,a5,-1908 # 9b05688c <_stack_start+0x8b04688c>
    2384:	04f12a23          	sw	a5,84(sp)
    2388:	1f83e7b7          	lui	a5,0x1f83e
    238c:	9ab78793          	addi	a5,a5,-1621 # 1f83d9ab <_stack_start+0xf82d9ab>
    2390:	04f12c23          	sw	a5,88(sp)
    2394:	5be0d7b7          	lui	a5,0x5be0d
    2398:	d1978793          	addi	a5,a5,-743 # 5be0cd19 <_stack_start+0x4bdfcd19>
    239c:	04f12e23          	sw	a5,92(sp)
    23a0:	6b08e7b7          	lui	a5,0x6b08e
    23a4:	64778793          	addi	a5,a5,1607 # 6b08e647 <_stack_start+0x5b07e647>
    23a8:	04f12023          	sw	a5,64(sp)
    23ac:	02000793          	li	a5,32
    23b0:	08812423          	sw	s0,136(sp)
    23b4:	08912223          	sw	s1,132(sp)
    23b8:	06f12623          	sw	a5,108(sp)
    23bc:	08112623          	sw	ra,140(sp)
    23c0:	09212023          	sw	s2,128(sp)
    23c4:	07312e23          	sw	s3,124(sp)
    23c8:	07412c23          	sw	s4,120(sp)
    23cc:	00050493          	mv	s1,a0
    23d0:	00058413          	mv	s0,a1
    23d4:	06012023          	sw	zero,96(sp)
    23d8:	06012223          	sw	zero,100(sp)
    23dc:	06012423          	sw	zero,104(sp)
    23e0:	00000793          	li	a5,0
    23e4:	04000713          	li	a4,64
    23e8:	00f106b3          	add	a3,sp,a5
    23ec:	00068023          	sb	zero,0(a3) # 8000 <_idata_start+0x1634>
    23f0:	00178793          	addi	a5,a5,1
    23f4:	fee79ae3          	bne	a5,a4,23e8 <hash.constprop.0.isra.0+0xa0>
    23f8:	00c40933          	add	s2,s0,a2
    23fc:	04000993          	li	s3,64
    2400:	03f00a13          	li	s4,63
    2404:	06812703          	lw	a4,104(sp)
    2408:	06012783          	lw	a5,96(sp)
    240c:	08891263          	bne	s2,s0,2490 <hash.constprop.0.isra.0+0x148>
    2410:	00f707b3          	add	a5,a4,a5
    2414:	06f12023          	sw	a5,96(sp)
    2418:	00e7f863          	bgeu	a5,a4,2428 <hash.constprop.0.isra.0+0xe0>
    241c:	06412783          	lw	a5,100(sp)
    2420:	00178793          	addi	a5,a5,1
    2424:	06f12223          	sw	a5,100(sp)
    2428:	00070793          	mv	a5,a4
    242c:	00000693          	li	a3,0
    2430:	03f00613          	li	a2,63
    2434:	0af67663          	bgeu	a2,a5,24e0 <hash.constprop.0.isra.0+0x198>
    2438:	02068063          	beqz	a3,2458 <hash.constprop.0.isra.0+0x110>
    243c:	04173693          	sltiu	a3,a4,65
    2440:	00000793          	li	a5,0
    2444:	00068663          	beqz	a3,2450 <hash.constprop.0.isra.0+0x108>
    2448:	04000793          	li	a5,64
    244c:	40e787b3          	sub	a5,a5,a4
    2450:	00e787b3          	add	a5,a5,a4
    2454:	06f12423          	sw	a5,104(sp)
    2458:	00100593          	li	a1,1
    245c:	00010513          	mv	a0,sp
    2460:	ea0fe0ef          	jal	b00 <blake2s_compress(blake2s_ctx*, int)>
    2464:	06c12603          	lw	a2,108(sp)
    2468:	00000793          	li	a5,0
    246c:	08c79463          	bne	a5,a2,24f4 <hash.constprop.0.isra.0+0x1ac>
    2470:	08c12083          	lw	ra,140(sp)
    2474:	08812403          	lw	s0,136(sp)
    2478:	08412483          	lw	s1,132(sp)
    247c:	08012903          	lw	s2,128(sp)
    2480:	07c12983          	lw	s3,124(sp)
    2484:	07812a03          	lw	s4,120(sp)
    2488:	09010113          	addi	sp,sp,144
    248c:	00008067          	ret
    2490:	03371663          	bne	a4,s3,24bc <hash.constprop.0.isra.0+0x174>
    2494:	04078793          	addi	a5,a5,64
    2498:	06f12023          	sw	a5,96(sp)
    249c:	00fa6863          	bltu	s4,a5,24ac <hash.constprop.0.isra.0+0x164>
    24a0:	06412783          	lw	a5,100(sp)
    24a4:	00178793          	addi	a5,a5,1
    24a8:	06f12223          	sw	a5,100(sp)
    24ac:	00000593          	li	a1,0
    24b0:	00010513          	mv	a0,sp
    24b4:	e4cfe0ef          	jal	b00 <blake2s_compress(blake2s_ctx*, int)>
    24b8:	06012423          	sw	zero,104(sp)
    24bc:	06812783          	lw	a5,104(sp)
    24c0:	00140413          	addi	s0,s0,1
    24c4:	00178713          	addi	a4,a5,1
    24c8:	06e12423          	sw	a4,104(sp)
    24cc:	fff44703          	lbu	a4,-1(s0)
    24d0:	07078793          	addi	a5,a5,112
    24d4:	002787b3          	add	a5,a5,sp
    24d8:	f8e78823          	sb	a4,-112(a5)
    24dc:	f29ff06f          	j	2404 <hash.constprop.0.isra.0+0xbc>
    24e0:	00f106b3          	add	a3,sp,a5
    24e4:	00068023          	sb	zero,0(a3)
    24e8:	00178793          	addi	a5,a5,1
    24ec:	00100693          	li	a3,1
    24f0:	f45ff06f          	j	2434 <hash.constprop.0.isra.0+0xec>
    24f4:	ffc7f713          	andi	a4,a5,-4
    24f8:	07070713          	addi	a4,a4,112
    24fc:	00270733          	add	a4,a4,sp
    2500:	fd072703          	lw	a4,-48(a4)
    2504:	0037f693          	andi	a3,a5,3
    2508:	00369693          	slli	a3,a3,0x3
    250c:	00f485b3          	add	a1,s1,a5
    2510:	00d75733          	srl	a4,a4,a3
    2514:	00e58023          	sb	a4,0(a1)
    2518:	00178793          	addi	a5,a5,1
    251c:	f51ff06f          	j	246c <hash.constprop.0.isra.0+0x124>

00002520 <memset>:
    2520:	0ff5f593          	zext.b	a1,a1
    2524:	00000793          	li	a5,0
    2528:	00c79463          	bne	a5,a2,2530 <memset+0x10>
    252c:	00008067          	ret
    2530:	00f50733          	add	a4,a0,a5
    2534:	00b70023          	sb	a1,0(a4)
    2538:	00178793          	addi	a5,a5,1
    253c:	fedff06f          	j	2528 <memset+0x8>

00002540 <uint320_mod_prime(uint320_t*)>:
    2540:	01452783          	lw	a5,20(a0)
    2544:	fc010113          	addi	sp,sp,-64
    2548:	02812c23          	sw	s0,56(sp)
    254c:	02912a23          	sw	s1,52(sp)
    2550:	02112e23          	sw	ra,60(sp)
    2554:	c007f493          	andi	s1,a5,-1024
    2558:	01052683          	lw	a3,16(a0)
    255c:	00050413          	mv	s0,a0
    2560:	02049263          	bnez	s1,2584 <uint320_mod_prime(uint320_t*)+0x44>
    2564:	01852703          	lw	a4,24(a0)
    2568:	01c52603          	lw	a2,28(a0)
    256c:	00c76733          	or	a4,a4,a2
    2570:	00071a63          	bnez	a4,2584 <uint320_mod_prime(uint320_t*)+0x44>
    2574:	02052703          	lw	a4,32(a0)
    2578:	02452603          	lw	a2,36(a0)
    257c:	00c76733          	or	a4,a4,a2
    2580:	06070263          	beqz	a4,25e4 <uint320_mod_prime(uint320_t*)+0xa4>
    2584:	3ff7f793          	andi	a5,a5,1023
    2588:	00000813          	li	a6,0
    258c:	00f42a23          	sw	a5,20(s0)
    2590:	00000793          	li	a5,0
    2594:	00d42823          	sw	a3,16(s0)
    2598:	00f42c23          	sw	a5,24(s0)
    259c:	01042e23          	sw	a6,28(s0)
    25a0:	02f42023          	sw	a5,32(s0)
    25a4:	03042223          	sw	a6,36(s0)
    25a8:	02800613          	li	a2,40
    25ac:	00000593          	li	a1,0
    25b0:	00810513          	addi	a0,sp,8
    25b4:	f6dff0ef          	jal	2520 <memset>
    25b8:	00500613          	li	a2,5
    25bc:	00000693          	li	a3,0
    25c0:	00000513          	li	a0,0
    25c4:	0024d593          	srli	a1,s1,0x2
    25c8:	170030ef          	jal	5738 <__muldi3>
    25cc:	00a12423          	sw	a0,8(sp)
    25d0:	00b12623          	sw	a1,12(sp)
    25d4:	00810613          	addi	a2,sp,8
    25d8:	00040593          	mv	a1,s0
    25dc:	00040513          	mv	a0,s0
    25e0:	830fe0ef          	jal	610 <uint320_add(uint320_t*, uint320_t const*, uint320_t const*)>
    25e4:	01442783          	lw	a5,20(s0)
    25e8:	01042703          	lw	a4,16(s0)
    25ec:	fff00693          	li	a3,-1
    25f0:	3ff7f793          	andi	a5,a5,1023
    25f4:	06d71263          	bne	a4,a3,2658 <uint320_mod_prime(uint320_t*)+0x118>
    25f8:	3ff00693          	li	a3,1023
    25fc:	04d79e63          	bne	a5,a3,2658 <uint320_mod_prime(uint320_t*)+0x118>
    2600:	00842783          	lw	a5,8(s0)
    2604:	04e79a63          	bne	a5,a4,2658 <uint320_mod_prime(uint320_t*)+0x118>
    2608:	00c42703          	lw	a4,12(s0)
    260c:	04f71663          	bne	a4,a5,2658 <uint320_mod_prime(uint320_t*)+0x118>
    2610:	00442683          	lw	a3,4(s0)
    2614:	00042783          	lw	a5,0(s0)
    2618:	04e69063          	bne	a3,a4,2658 <uint320_mod_prime(uint320_t*)+0x118>
    261c:	ffa00713          	li	a4,-6
    2620:	02f77c63          	bgeu	a4,a5,2658 <uint320_mod_prime(uint320_t*)+0x118>
    2624:	00578713          	addi	a4,a5,5
    2628:	00f737b3          	sltu	a5,a4,a5
    262c:	fff78793          	addi	a5,a5,-1
    2630:	00f42223          	sw	a5,4(s0)
    2634:	00000793          	li	a5,0
    2638:	00e42023          	sw	a4,0(s0)
    263c:	00000813          	li	a6,0
    2640:	00f42423          	sw	a5,8(s0)
    2644:	fff00713          	li	a4,-1
    2648:	3ff00793          	li	a5,1023
    264c:	01042623          	sw	a6,12(s0)
    2650:	00e42823          	sw	a4,16(s0)
    2654:	00f42a23          	sw	a5,20(s0)
    2658:	03c12083          	lw	ra,60(sp)
    265c:	03812403          	lw	s0,56(sp)
    2660:	03412483          	lw	s1,52(sp)
    2664:	04010113          	addi	sp,sp,64
    2668:	00008067          	ret

0000266c <bytes_to_uint320(uint320_t*, unsigned char const*, unsigned int) [clone .constprop.0]>:
    266c:	fe010113          	addi	sp,sp,-32
    2670:	01212823          	sw	s2,16(sp)
    2674:	02800613          	li	a2,40
    2678:	00058913          	mv	s2,a1
    267c:	00000593          	li	a1,0
    2680:	00812c23          	sw	s0,24(sp)
    2684:	01312623          	sw	s3,12(sp)
    2688:	01412423          	sw	s4,8(sp)
    268c:	00112e23          	sw	ra,28(sp)
    2690:	00912a23          	sw	s1,20(sp)
    2694:	00050993          	mv	s3,a0
    2698:	00000413          	li	s0,0
    269c:	e85ff0ef          	jal	2520 <memset>
    26a0:	01000a13          	li	s4,16
    26a4:	008907b3          	add	a5,s2,s0
    26a8:	0007c503          	lbu	a0,0(a5)
    26ac:	00747613          	andi	a2,s0,7
    26b0:	ff847493          	andi	s1,s0,-8
    26b4:	00361613          	slli	a2,a2,0x3
    26b8:	00000593          	li	a1,0
    26bc:	020030ef          	jal	56dc <__ashldi3>
    26c0:	009984b3          	add	s1,s3,s1
    26c4:	0004a783          	lw	a5,0(s1)
    26c8:	00140413          	addi	s0,s0,1
    26cc:	00a7e733          	or	a4,a5,a0
    26d0:	0044a783          	lw	a5,4(s1)
    26d4:	00e4a023          	sw	a4,0(s1)
    26d8:	00b7e7b3          	or	a5,a5,a1
    26dc:	00f4a223          	sw	a5,4(s1)
    26e0:	fd4412e3          	bne	s0,s4,26a4 <bytes_to_uint320(uint320_t*, unsigned char const*, unsigned int) [clone .constprop.0]+0x38>
    26e4:	01c12083          	lw	ra,28(sp)
    26e8:	01812403          	lw	s0,24(sp)
    26ec:	01412483          	lw	s1,20(sp)
    26f0:	01012903          	lw	s2,16(sp)
    26f4:	00c12983          	lw	s3,12(sp)
    26f8:	00812a03          	lw	s4,8(sp)
    26fc:	02010113          	addi	sp,sp,32
    2700:	00008067          	ret

00002704 <memcpy>:
    2704:	00000793          	li	a5,0
    2708:	00c79463          	bne	a5,a2,2710 <memcpy+0xc>
    270c:	00008067          	ret
    2710:	00f58733          	add	a4,a1,a5
    2714:	00074683          	lbu	a3,0(a4)
    2718:	00f50733          	add	a4,a0,a5
    271c:	00178793          	addi	a5,a5,1
    2720:	00d70023          	sb	a3,0(a4)
    2724:	fe5ff06f          	j	2708 <memcpy+0x4>

00002728 <chacha20_encrypt>:
    2728:	f0010113          	addi	sp,sp,-256
    272c:	0d712e23          	sw	s7,220(sp)
    2730:	0d912a23          	sw	s9,212(sp)
    2734:	0da12823          	sw	s10,208(sp)
    2738:	0db12623          	sw	s11,204(sp)
    273c:	61708bb7          	lui	s7,0x61708
    2740:	33206cb7          	lui	s9,0x33206
    2744:	79623d37          	lui	s10,0x79623
    2748:	6b206db7          	lui	s11,0x6b206
    274c:	0e912a23          	sw	s1,244(sp)
    2750:	0f212823          	sw	s2,240(sp)
    2754:	0f312623          	sw	s3,236(sp)
    2758:	0f412423          	sw	s4,232(sp)
    275c:	0f512223          	sw	s5,228(sp)
    2760:	0f612023          	sw	s6,224(sp)
    2764:	0e112e23          	sw	ra,252(sp)
    2768:	0e812c23          	sw	s0,248(sp)
    276c:	0d812c23          	sw	s8,216(sp)
    2770:	00050913          	mv	s2,a0
    2774:	00058993          	mv	s3,a1
    2778:	00060493          	mv	s1,a2
    277c:	00068b13          	mv	s6,a3
    2780:	00070a13          	mv	s4,a4
    2784:	00078a93          	mv	s5,a5
    2788:	865b8b93          	addi	s7,s7,-1947 # 61707865 <_stack_start+0x516f7865>
    278c:	46ec8c93          	addi	s9,s9,1134 # 3320646e <_stack_start+0x231f646e>
    2790:	d32d0d13          	addi	s10,s10,-718 # 79622d32 <_stack_start+0x69612d32>
    2794:	574d8d93          	addi	s11,s11,1396 # 6b206574 <_stack_start+0x5b1f6574>
    2798:	04049063          	bnez	s1,27d8 <chacha20_encrypt+0xb0>
    279c:	0fc12083          	lw	ra,252(sp)
    27a0:	0f812403          	lw	s0,248(sp)
    27a4:	0f412483          	lw	s1,244(sp)
    27a8:	0f012903          	lw	s2,240(sp)
    27ac:	0ec12983          	lw	s3,236(sp)
    27b0:	0e812a03          	lw	s4,232(sp)
    27b4:	0e412a83          	lw	s5,228(sp)
    27b8:	0e012b03          	lw	s6,224(sp)
    27bc:	0dc12b83          	lw	s7,220(sp)
    27c0:	0d812c03          	lw	s8,216(sp)
    27c4:	0d412c83          	lw	s9,212(sp)
    27c8:	0d012d03          	lw	s10,208(sp)
    27cc:	0cc12d83          	lw	s11,204(sp)
    27d0:	10010113          	addi	sp,sp,256
    27d4:	00008067          	ret
    27d8:	04010713          	addi	a4,sp,64
    27dc:	05712023          	sw	s7,64(sp)
    27e0:	05912223          	sw	s9,68(sp)
    27e4:	05a12423          	sw	s10,72(sp)
    27e8:	05b12623          	sw	s11,76(sp)
    27ec:	00000793          	li	a5,0
    27f0:	00070c13          	mv	s8,a4
    27f4:	02000693          	li	a3,32
    27f8:	00fb0633          	add	a2,s6,a5
    27fc:	00062603          	lw	a2,0(a2)
    2800:	00478793          	addi	a5,a5,4
    2804:	00470713          	addi	a4,a4,4
    2808:	00c72623          	sw	a2,12(a4)
    280c:	fed796e3          	bne	a5,a3,27f8 <chacha20_encrypt+0xd0>
    2810:	000a2783          	lw	a5,0(s4)
    2814:	04000613          	li	a2,64
    2818:	000c0593          	mv	a1,s8
    281c:	06f12a23          	sw	a5,116(sp)
    2820:	004a2783          	lw	a5,4(s4)
    2824:	08010513          	addi	a0,sp,128
    2828:	07512823          	sw	s5,112(sp)
    282c:	06f12c23          	sw	a5,120(sp)
    2830:	008a2783          	lw	a5,8(s4)
    2834:	00a00413          	li	s0,10
    2838:	06f12e23          	sw	a5,124(sp)
    283c:	ec9ff0ef          	jal	2704 <memcpy>
    2840:	0b010693          	addi	a3,sp,176
    2844:	0a010613          	addi	a2,sp,160
    2848:	09010593          	addi	a1,sp,144
    284c:	08010513          	addi	a0,sp,128
    2850:	d29fd0ef          	jal	578 <quarter_round(unsigned long*, unsigned long*, unsigned long*, unsigned long*)>
    2854:	0b410693          	addi	a3,sp,180
    2858:	0a410613          	addi	a2,sp,164
    285c:	09410593          	addi	a1,sp,148
    2860:	08410513          	addi	a0,sp,132
    2864:	d15fd0ef          	jal	578 <quarter_round(unsigned long*, unsigned long*, unsigned long*, unsigned long*)>
    2868:	0b810693          	addi	a3,sp,184
    286c:	0a810613          	addi	a2,sp,168
    2870:	09810593          	addi	a1,sp,152
    2874:	08810513          	addi	a0,sp,136
    2878:	d01fd0ef          	jal	578 <quarter_round(unsigned long*, unsigned long*, unsigned long*, unsigned long*)>
    287c:	0bc10693          	addi	a3,sp,188
    2880:	0ac10613          	addi	a2,sp,172
    2884:	09c10593          	addi	a1,sp,156
    2888:	08c10513          	addi	a0,sp,140
    288c:	cedfd0ef          	jal	578 <quarter_round(unsigned long*, unsigned long*, unsigned long*, unsigned long*)>
    2890:	0bc10693          	addi	a3,sp,188
    2894:	0a810613          	addi	a2,sp,168
    2898:	09410593          	addi	a1,sp,148
    289c:	08010513          	addi	a0,sp,128
    28a0:	cd9fd0ef          	jal	578 <quarter_round(unsigned long*, unsigned long*, unsigned long*, unsigned long*)>
    28a4:	0b010693          	addi	a3,sp,176
    28a8:	0ac10613          	addi	a2,sp,172
    28ac:	09810593          	addi	a1,sp,152
    28b0:	08410513          	addi	a0,sp,132
    28b4:	cc5fd0ef          	jal	578 <quarter_round(unsigned long*, unsigned long*, unsigned long*, unsigned long*)>
    28b8:	0b410693          	addi	a3,sp,180
    28bc:	0a010613          	addi	a2,sp,160
    28c0:	09c10593          	addi	a1,sp,156
    28c4:	08810513          	addi	a0,sp,136
    28c8:	cb1fd0ef          	jal	578 <quarter_round(unsigned long*, unsigned long*, unsigned long*, unsigned long*)>
    28cc:	0b810693          	addi	a3,sp,184
    28d0:	0a410613          	addi	a2,sp,164
    28d4:	09010593          	addi	a1,sp,144
    28d8:	08c10513          	addi	a0,sp,140
    28dc:	fff40413          	addi	s0,s0,-1
    28e0:	c99fd0ef          	jal	578 <quarter_round(unsigned long*, unsigned long*, unsigned long*, unsigned long*)>
    28e4:	f4041ee3          	bnez	s0,2840 <chacha20_encrypt+0x118>
    28e8:	00000613          	li	a2,0
    28ec:	04000713          	li	a4,64
    28f0:	08010793          	addi	a5,sp,128
    28f4:	00c787b3          	add	a5,a5,a2
    28f8:	00cc05b3          	add	a1,s8,a2
    28fc:	0007a783          	lw	a5,0(a5)
    2900:	0005a583          	lw	a1,0(a1)
    2904:	00c106b3          	add	a3,sp,a2
    2908:	00460613          	addi	a2,a2,4
    290c:	00b787b3          	add	a5,a5,a1
    2910:	00f6a023          	sw	a5,0(a3)
    2914:	fce61ee3          	bne	a2,a4,28f0 <chacha20_encrypt+0x1c8>
    2918:	00048793          	mv	a5,s1
    291c:	00967463          	bgeu	a2,s1,2924 <chacha20_encrypt+0x1fc>
    2920:	04000793          	li	a5,64
    2924:	00898733          	add	a4,s3,s0
    2928:	00810633          	add	a2,sp,s0
    292c:	00074703          	lbu	a4,0(a4)
    2930:	00064603          	lbu	a2,0(a2)
    2934:	008906b3          	add	a3,s2,s0
    2938:	00140413          	addi	s0,s0,1
    293c:	00c74733          	xor	a4,a4,a2
    2940:	00e68023          	sb	a4,0(a3)
    2944:	fe8790e3          	bne	a5,s0,2924 <chacha20_encrypt+0x1fc>
    2948:	001a8a93          	addi	s5,s5,1
    294c:	40f484b3          	sub	s1,s1,a5
    2950:	00f90933          	add	s2,s2,a5
    2954:	00f989b3          	add	s3,s3,a5
    2958:	e41ff06f          	j	2798 <chacha20_encrypt+0x70>

0000295c <uint320_mul(uint320_t*, uint320_t const*, uint320_t const*)>:
    295c:	f8010113          	addi	sp,sp,-128
    2960:	07412423          	sw	s4,104(sp)
    2964:	07512223          	sw	s5,100(sp)
    2968:	00a12623          	sw	a0,12(sp)
    296c:	00058a13          	mv	s4,a1
    2970:	00060a93          	mv	s5,a2
    2974:	00000593          	li	a1,0
    2978:	02800613          	li	a2,40
    297c:	01810513          	addi	a0,sp,24
    2980:	05812c23          	sw	s8,88(sp)
    2984:	05a12823          	sw	s10,80(sp)
    2988:	05b12623          	sw	s11,76(sp)
    298c:	06112e23          	sw	ra,124(sp)
    2990:	06812c23          	sw	s0,120(sp)
    2994:	06912a23          	sw	s1,116(sp)
    2998:	07212823          	sw	s2,112(sp)
    299c:	07312623          	sw	s3,108(sp)
    29a0:	07612023          	sw	s6,96(sp)
    29a4:	05712e23          	sw	s7,92(sp)
    29a8:	05912a23          	sw	s9,84(sp)
    29ac:	01810d13          	addi	s10,sp,24
    29b0:	b71ff0ef          	jal	2520 <memset>
    29b4:	00000c13          	li	s8,0
    29b8:	00500d93          	li	s11,5
    29bc:	003c1793          	slli	a5,s8,0x3
    29c0:	00fa07b3          	add	a5,s4,a5
    29c4:	0007a903          	lw	s2,0(a5)
    29c8:	0047a983          	lw	s3,4(a5)
    29cc:	000d0b93          	mv	s7,s10
    29d0:	00000c93          	li	s9,0
    29d4:	00000413          	li	s0,0
    29d8:	00000b13          	li	s6,0
    29dc:	418d84b3          	sub	s1,s11,s8
    29e0:	003c9793          	slli	a5,s9,0x3
    29e4:	00fa87b3          	add	a5,s5,a5
    29e8:	0007a603          	lw	a2,0(a5)
    29ec:	0047a683          	lw	a3,4(a5)
    29f0:	00090513          	mv	a0,s2
    29f4:	00098593          	mv	a1,s3
    29f8:	541020ef          	jal	5738 <__muldi3>
    29fc:	000ba703          	lw	a4,0(s7)
    2a00:	004ba683          	lw	a3,4(s7)
    2a04:	00058893          	mv	a7,a1
    2a08:	00a70733          	add	a4,a4,a0
    2a0c:	00b686b3          	add	a3,a3,a1
    2a10:	00a737b3          	sltu	a5,a4,a0
    2a14:	00d787b3          	add	a5,a5,a3
    2a18:	00870633          	add	a2,a4,s0
    2a1c:	016785b3          	add	a1,a5,s6
    2a20:	00e636b3          	sltu	a3,a2,a4
    2a24:	00b686b3          	add	a3,a3,a1
    2a28:	00050313          	mv	t1,a0
    2a2c:	00100593          	li	a1,1
    2a30:	0166e863          	bltu	a3,s6,2a40 <uint320_mul(uint320_t*, uint320_t const*, uint320_t const*)+0xe4>
    2a34:	00db1463          	bne	s6,a3,2a3c <uint320_mul(uint320_t*, uint320_t const*, uint320_t const*)+0xe0>
    2a38:	00866463          	bltu	a2,s0,2a40 <uint320_mul(uint320_t*, uint320_t const*, uint320_t const*)+0xe4>
    2a3c:	00000593          	li	a1,0
    2a40:	00100413          	li	s0,1
    2a44:	0117e863          	bltu	a5,a7,2a54 <uint320_mul(uint320_t*, uint320_t const*, uint320_t const*)+0xf8>
    2a48:	00f89463          	bne	a7,a5,2a50 <uint320_mul(uint320_t*, uint320_t const*, uint320_t const*)+0xf4>
    2a4c:	00676463          	bltu	a4,t1,2a54 <uint320_mul(uint320_t*, uint320_t const*, uint320_t const*)+0xf8>
    2a50:	00000413          	li	s0,0
    2a54:	00858433          	add	s0,a1,s0
    2a58:	00cba023          	sw	a2,0(s7)
    2a5c:	00dba223          	sw	a3,4(s7)
    2a60:	001c8c93          	addi	s9,s9,1
    2a64:	00b43b33          	sltu	s6,s0,a1
    2a68:	008b8b93          	addi	s7,s7,8
    2a6c:	f7949ae3          	bne	s1,s9,29e0 <uint320_mul(uint320_t*, uint320_t const*, uint320_t const*)+0x84>
    2a70:	001c0c13          	addi	s8,s8,1
    2a74:	008d0d13          	addi	s10,s10,8
    2a78:	f5bc12e3          	bne	s8,s11,29bc <uint320_mul(uint320_t*, uint320_t const*, uint320_t const*)+0x60>
    2a7c:	00c12503          	lw	a0,12(sp)
    2a80:	01810593          	addi	a1,sp,24
    2a84:	02800613          	li	a2,40
    2a88:	c7dff0ef          	jal	2704 <memcpy>
    2a8c:	07c12083          	lw	ra,124(sp)
    2a90:	07812403          	lw	s0,120(sp)
    2a94:	07412483          	lw	s1,116(sp)
    2a98:	07012903          	lw	s2,112(sp)
    2a9c:	06c12983          	lw	s3,108(sp)
    2aa0:	06812a03          	lw	s4,104(sp)
    2aa4:	06412a83          	lw	s5,100(sp)
    2aa8:	06012b03          	lw	s6,96(sp)
    2aac:	05c12b83          	lw	s7,92(sp)
    2ab0:	05812c03          	lw	s8,88(sp)
    2ab4:	05412c83          	lw	s9,84(sp)
    2ab8:	05012d03          	lw	s10,80(sp)
    2abc:	04c12d83          	lw	s11,76(sp)
    2ac0:	08010113          	addi	sp,sp,128
    2ac4:	00008067          	ret

00002ac8 <poly1305_mac>:
    2ac8:	ee010113          	addi	sp,sp,-288
    2acc:	11212823          	sw	s2,272(sp)
    2ad0:	11412423          	sw	s4,264(sp)
    2ad4:	00060913          	mv	s2,a2
    2ad8:	00050a13          	mv	s4,a0
    2adc:	01000613          	li	a2,16
    2ae0:	01810513          	addi	a0,sp,24
    2ae4:	10112e23          	sw	ra,284(sp)
    2ae8:	10812c23          	sw	s0,280(sp)
    2aec:	10912a23          	sw	s1,276(sp)
    2af0:	00068413          	mv	s0,a3
    2af4:	00058493          	mv	s1,a1
    2af8:	11312623          	sw	s3,268(sp)
    2afc:	11512223          	sw	s5,260(sp)
    2b00:	c05ff0ef          	jal	2704 <memcpy>
    2b04:	01048593          	addi	a1,s1,16
    2b08:	01000613          	li	a2,16
    2b0c:	00810513          	addi	a0,sp,8
    2b10:	bf5ff0ef          	jal	2704 <memcpy>
    2b14:	01b14783          	lbu	a5,27(sp)
    2b18:	02800613          	li	a2,40
    2b1c:	00000593          	li	a1,0
    2b20:	00f7f793          	andi	a5,a5,15
    2b24:	00f10da3          	sb	a5,27(sp)
    2b28:	01f14783          	lbu	a5,31(sp)
    2b2c:	03810513          	addi	a0,sp,56
    2b30:	00445a93          	srli	s5,s0,0x4
    2b34:	00f7f793          	andi	a5,a5,15
    2b38:	00f10fa3          	sb	a5,31(sp)
    2b3c:	02314783          	lbu	a5,35(sp)
    2b40:	00f47493          	andi	s1,s0,15
    2b44:	00000993          	li	s3,0
    2b48:	00f7f793          	andi	a5,a5,15
    2b4c:	02f101a3          	sb	a5,35(sp)
    2b50:	02714783          	lbu	a5,39(sp)
    2b54:	00f7f793          	andi	a5,a5,15
    2b58:	02f103a3          	sb	a5,39(sp)
    2b5c:	01c14783          	lbu	a5,28(sp)
    2b60:	ffc7f793          	andi	a5,a5,-4
    2b64:	00f10e23          	sb	a5,28(sp)
    2b68:	02014783          	lbu	a5,32(sp)
    2b6c:	ffc7f793          	andi	a5,a5,-4
    2b70:	02f10023          	sb	a5,32(sp)
    2b74:	02414783          	lbu	a5,36(sp)
    2b78:	ffc7f793          	andi	a5,a5,-4
    2b7c:	02f10223          	sb	a5,36(sp)
    2b80:	9a1ff0ef          	jal	2520 <memset>
    2b84:	01810593          	addi	a1,sp,24
    2b88:	08810513          	addi	a0,sp,136
    2b8c:	ae1ff0ef          	jal	266c <bytes_to_uint320(uint320_t*, unsigned char const*, unsigned int) [clone .constprop.0]>
    2b90:	00810593          	addi	a1,sp,8
    2b94:	06010513          	addi	a0,sp,96
    2b98:	ad5ff0ef          	jal	266c <bytes_to_uint320(uint320_t*, unsigned char const*, unsigned int) [clone .constprop.0]>
    2b9c:	0d599263          	bne	s3,s5,2c60 <poly1305_mac+0x198>
    2ba0:	06048e63          	beqz	s1,2c1c <poly1305_mac+0x154>
    2ba4:	ff047593          	andi	a1,s0,-16
    2ba8:	00048613          	mv	a2,s1
    2bac:	00b905b3          	add	a1,s2,a1
    2bb0:	02810513          	addi	a0,sp,40
    2bb4:	02012423          	sw	zero,40(sp)
    2bb8:	02012623          	sw	zero,44(sp)
    2bbc:	02012823          	sw	zero,48(sp)
    2bc0:	02012a23          	sw	zero,52(sp)
    2bc4:	b41ff0ef          	jal	2704 <memcpy>
    2bc8:	10048793          	addi	a5,s1,256
    2bcc:	002784b3          	add	s1,a5,sp
    2bd0:	02810593          	addi	a1,sp,40
    2bd4:	00100793          	li	a5,1
    2bd8:	0d810513          	addi	a0,sp,216
    2bdc:	f2f48423          	sb	a5,-216(s1)
    2be0:	a8dff0ef          	jal	266c <bytes_to_uint320(uint320_t*, unsigned char const*, unsigned int) [clone .constprop.0]>
    2be4:	03810593          	addi	a1,sp,56
    2be8:	00058513          	mv	a0,a1
    2bec:	0d810613          	addi	a2,sp,216
    2bf0:	a21fd0ef          	jal	610 <uint320_add(uint320_t*, uint320_t const*, uint320_t const*)>
    2bf4:	02800613          	li	a2,40
    2bf8:	03810593          	addi	a1,sp,56
    2bfc:	0b010513          	addi	a0,sp,176
    2c00:	b05ff0ef          	jal	2704 <memcpy>
    2c04:	03810513          	addi	a0,sp,56
    2c08:	08810613          	addi	a2,sp,136
    2c0c:	0b010593          	addi	a1,sp,176
    2c10:	d4dff0ef          	jal	295c <uint320_mul(uint320_t*, uint320_t const*, uint320_t const*)>
    2c14:	03810513          	addi	a0,sp,56
    2c18:	929ff0ef          	jal	2540 <uint320_mod_prime(uint320_t*)>
    2c1c:	03810593          	addi	a1,sp,56
    2c20:	06010613          	addi	a2,sp,96
    2c24:	00058513          	mv	a0,a1
    2c28:	9e9fd0ef          	jal	610 <uint320_add(uint320_t*, uint320_t const*, uint320_t const*)>
    2c2c:	03810593          	addi	a1,sp,56
    2c30:	000a0513          	mv	a0,s4
    2c34:	01000613          	li	a2,16
    2c38:	acdff0ef          	jal	2704 <memcpy>
    2c3c:	11c12083          	lw	ra,284(sp)
    2c40:	11812403          	lw	s0,280(sp)
    2c44:	11412483          	lw	s1,276(sp)
    2c48:	11012903          	lw	s2,272(sp)
    2c4c:	10c12983          	lw	s3,268(sp)
    2c50:	10812a03          	lw	s4,264(sp)
    2c54:	10412a83          	lw	s5,260(sp)
    2c58:	12010113          	addi	sp,sp,288
    2c5c:	00008067          	ret
    2c60:	00499593          	slli	a1,s3,0x4
    2c64:	00b905b3          	add	a1,s2,a1
    2c68:	0d810513          	addi	a0,sp,216
    2c6c:	a01ff0ef          	jal	266c <bytes_to_uint320(uint320_t*, unsigned char const*, unsigned int) [clone .constprop.0]>
    2c70:	0e812783          	lw	a5,232(sp)
    2c74:	03810593          	addi	a1,sp,56
    2c78:	00058513          	mv	a0,a1
    2c7c:	0017e793          	ori	a5,a5,1
    2c80:	0d810613          	addi	a2,sp,216
    2c84:	0ef12423          	sw	a5,232(sp)
    2c88:	989fd0ef          	jal	610 <uint320_add(uint320_t*, uint320_t const*, uint320_t const*)>
    2c8c:	02800613          	li	a2,40
    2c90:	03810593          	addi	a1,sp,56
    2c94:	0b010513          	addi	a0,sp,176
    2c98:	a6dff0ef          	jal	2704 <memcpy>
    2c9c:	08810613          	addi	a2,sp,136
    2ca0:	0b010593          	addi	a1,sp,176
    2ca4:	03810513          	addi	a0,sp,56
    2ca8:	cb5ff0ef          	jal	295c <uint320_mul(uint320_t*, uint320_t const*, uint320_t const*)>
    2cac:	03810513          	addi	a0,sp,56
    2cb0:	891ff0ef          	jal	2540 <uint320_mod_prime(uint320_t*)>
    2cb4:	00198993          	addi	s3,s3,1
    2cb8:	ee5ff06f          	j	2b9c <poly1305_mac+0xd4>

00002cbc <poly1305_key_gen(unsigned char*, unsigned char const*, unsigned char const*)>:
    2cbc:	fa010113          	addi	sp,sp,-96
    2cc0:	04812c23          	sw	s0,88(sp)
    2cc4:	00b12623          	sw	a1,12(sp)
    2cc8:	00050413          	mv	s0,a0
    2ccc:	00c12423          	sw	a2,8(sp)
    2cd0:	00000593          	li	a1,0
    2cd4:	04000613          	li	a2,64
    2cd8:	01010513          	addi	a0,sp,16
    2cdc:	04112e23          	sw	ra,92(sp)
    2ce0:	841ff0ef          	jal	2520 <memset>
    2ce4:	00812703          	lw	a4,8(sp)
    2ce8:	00c12683          	lw	a3,12(sp)
    2cec:	01010593          	addi	a1,sp,16
    2cf0:	00058513          	mv	a0,a1
    2cf4:	00000793          	li	a5,0
    2cf8:	04000613          	li	a2,64
    2cfc:	a2dff0ef          	jal	2728 <chacha20_encrypt>
    2d00:	01010593          	addi	a1,sp,16
    2d04:	00040513          	mv	a0,s0
    2d08:	02000613          	li	a2,32
    2d0c:	9f9ff0ef          	jal	2704 <memcpy>
    2d10:	05c12083          	lw	ra,92(sp)
    2d14:	05812403          	lw	s0,88(sp)
    2d18:	06010113          	addi	sp,sp,96
    2d1c:	00008067          	ret

00002d20 <random_32bytes>:
    2d20:	f5010113          	addi	sp,sp,-176
    2d24:	0a812423          	sw	s0,168(sp)
    2d28:	0b212023          	sw	s2,160(sp)
    2d2c:	09312e23          	sw	s3,156(sp)
    2d30:	00c10413          	addi	s0,sp,12
    2d34:	6c0799b7          	lui	s3,0x6c079
    2d38:	5d589937          	lui	s2,0x5d589
    2d3c:	0a912223          	sw	s1,164(sp)
    2d40:	09412c23          	sw	s4,152(sp)
    2d44:	09512a23          	sw	s5,148(sp)
    2d48:	09612823          	sw	s6,144(sp)
    2d4c:	0a112623          	sw	ra,172(sp)
    2d50:	00050493          	mv	s1,a0
    2d54:	04c10a93          	addi	s5,sp,76
    2d58:	00040a13          	mv	s4,s0
    2d5c:	96598993          	addi	s3,s3,-1691 # 6c078965 <_stack_start+0x5c068965>
    2d60:	b6590913          	addi	s2,s2,-1179 # 5d588b65 <_stack_start+0x4d578b65>
    2d64:	3e700b13          	li	s6,999
    2d68:	c00027f3          	rdcycle	a5
    2d6c:	0077d513          	srli	a0,a5,0x7
    2d70:	00f54533          	xor	a0,a0,a5
    2d74:	00098593          	mv	a1,s3
    2d78:	19d020ef          	jal	5714 <__mulsi3>
    2d7c:	00b55793          	srli	a5,a0,0xb
    2d80:	00a7c7b3          	xor	a5,a5,a0
    2d84:	012787b3          	add	a5,a5,s2
    2d88:	00f42023          	sw	a5,0(s0)
    2d8c:	00012423          	sw	zero,8(sp)
    2d90:	00812783          	lw	a5,8(sp)
    2d94:	08fb5663          	bge	s6,a5,2e20 <random_32bytes+0x100>
    2d98:	00440413          	addi	s0,s0,4
    2d9c:	fd5416e3          	bne	s0,s5,2d68 <random_32bytes+0x48>
    2da0:	00410913          	addi	s2,sp,4
    2da4:	000a0593          	mv	a1,s4
    2da8:	04000613          	li	a2,64
    2dac:	00040513          	mv	a0,s0
    2db0:	01212223          	sw	s2,4(sp)
    2db4:	951ff0ef          	jal	2704 <memcpy>
    2db8:	00090593          	mv	a1,s2
    2dbc:	00400613          	li	a2,4
    2dc0:	08c10513          	addi	a0,sp,140
    2dc4:	941ff0ef          	jal	2704 <memcpy>
    2dc8:	00040593          	mv	a1,s0
    2dcc:	00048513          	mv	a0,s1
    2dd0:	04400613          	li	a2,68
    2dd4:	d74ff0ef          	jal	2348 <hash.constprop.0.isra.0>
    2dd8:	04000613          	li	a2,64
    2ddc:	00000593          	li	a1,0
    2de0:	000a0513          	mv	a0,s4
    2de4:	f3cff0ef          	jal	2520 <memset>
    2de8:	00040513          	mv	a0,s0
    2dec:	04400613          	li	a2,68
    2df0:	00000593          	li	a1,0
    2df4:	f2cff0ef          	jal	2520 <memset>
    2df8:	0ac12083          	lw	ra,172(sp)
    2dfc:	0a812403          	lw	s0,168(sp)
    2e00:	0a412483          	lw	s1,164(sp)
    2e04:	0a012903          	lw	s2,160(sp)
    2e08:	09c12983          	lw	s3,156(sp)
    2e0c:	09812a03          	lw	s4,152(sp)
    2e10:	09412a83          	lw	s5,148(sp)
    2e14:	09012b03          	lw	s6,144(sp)
    2e18:	0b010113          	addi	sp,sp,176
    2e1c:	00008067          	ret
    2e20:	00000013          	nop
    2e24:	00812783          	lw	a5,8(sp)
    2e28:	00178793          	addi	a5,a5,1
    2e2c:	00f12423          	sw	a5,8(sp)
    2e30:	f61ff06f          	j	2d90 <random_32bytes+0x70>

00002e34 <test_chacha20poly1305(csr_vp_t volatile*) [clone .isra.0]>:
    2e34:	96010113          	addi	sp,sp,-1696
    2e38:	000065b7          	lui	a1,0x6
    2e3c:	69412423          	sw	s4,1672(sp)
    2e40:	02000613          	li	a2,32
    2e44:	b5458593          	addi	a1,a1,-1196 # 5b54 <__modsi3+0x30c>
    2e48:	00050a13          	mv	s4,a0
    2e4c:	03010513          	addi	a0,sp,48
    2e50:	68112e23          	sw	ra,1692(sp)
    2e54:	68812c23          	sw	s0,1688(sp)
    2e58:	68912a23          	sw	s1,1684(sp)
    2e5c:	69212823          	sw	s2,1680(sp)
    2e60:	69312623          	sw	s3,1676(sp)
    2e64:	69612023          	sw	s6,1664(sp)
    2e68:	67712e23          	sw	s7,1660(sp)
    2e6c:	69512223          	sw	s5,1668(sp)
    2e70:	895ff0ef          	jal	2704 <memcpy>
    2e74:	000075b7          	lui	a1,0x7
    2e78:	00c00613          	li	a2,12
    2e7c:	95858593          	addi	a1,a1,-1704 # 6958 <_121665+0x80>
    2e80:	00410513          	addi	a0,sp,4
    2e84:	881ff0ef          	jal	2704 <memcpy>
    2e88:	00006b37          	lui	s6,0x6
    2e8c:	ab0b0513          	addi	a0,s6,-1360 # 5ab0 <__modsi3+0x268>
    2e90:	e18fd0ef          	jal	4a8 <strlen>
    2e94:	00006437          	lui	s0,0x6
    2e98:	00050913          	mv	s2,a0
    2e9c:	ad040513          	addi	a0,s0,-1328 # 5ad0 <__modsi3+0x288>
    2ea0:	e08fd0ef          	jal	4a8 <strlen>
    2ea4:	00050493          	mv	s1,a0
    2ea8:	00410613          	addi	a2,sp,4
    2eac:	03010593          	addi	a1,sp,48
    2eb0:	17010513          	addi	a0,sp,368
    2eb4:	e09ff0ef          	jal	2cbc <poly1305_key_gen(unsigned char*, unsigned char const*, unsigned char const*)>
    2eb8:	ad040593          	addi	a1,s0,-1328
    2ebc:	412009b3          	neg	s3,s2
    2ec0:	40900433          	neg	s0,s1
    2ec4:	00048613          	mv	a2,s1
    2ec8:	07010513          	addi	a0,sp,112
    2ecc:	00100793          	li	a5,1
    2ed0:	00410713          	addi	a4,sp,4
    2ed4:	03010693          	addi	a3,sp,48
    2ed8:	00f9f993          	andi	s3,s3,15
    2edc:	00f47413          	andi	s0,s0,15
    2ee0:	849ff0ef          	jal	2728 <chacha20_encrypt>
    2ee4:	012989b3          	add	s3,s3,s2
    2ee8:	00940433          	add	s0,s0,s1
    2eec:	01340433          	add	s0,s0,s3
    2ef0:	40000613          	li	a2,1024
    2ef4:	00000593          	li	a1,0
    2ef8:	27010513          	addi	a0,sp,624
    2efc:	01040b93          	addi	s7,s0,16
    2f00:	e20ff0ef          	jal	2520 <memset>
    2f04:	00090a63          	beqz	s2,2f18 <test_chacha20poly1305(csr_vp_t volatile*) [clone .isra.0]+0xe4>
    2f08:	00090613          	mv	a2,s2
    2f0c:	ab0b0593          	addi	a1,s6,-1360
    2f10:	27010513          	addi	a0,sp,624
    2f14:	ff0ff0ef          	jal	2704 <memcpy>
    2f18:	27010793          	addi	a5,sp,624
    2f1c:	00048613          	mv	a2,s1
    2f20:	07010593          	addi	a1,sp,112
    2f24:	01378533          	add	a0,a5,s3
    2f28:	fdcff0ef          	jal	2704 <memcpy>
    2f2c:	27010793          	addi	a5,sp,624
    2f30:	00878ab3          	add	s5,a5,s0
    2f34:	00090593          	mv	a1,s2
    2f38:	00000613          	li	a2,0
    2f3c:	000a8513          	mv	a0,s5
    2f40:	f4cfd0ef          	jal	68c <encode_le64(unsigned char*, unsigned long long)>
    2f44:	00048593          	mv	a1,s1
    2f48:	00000613          	li	a2,0
    2f4c:	008a8513          	addi	a0,s5,8
    2f50:	f3cfd0ef          	jal	68c <encode_le64(unsigned char*, unsigned long long)>
    2f54:	000b8693          	mv	a3,s7
    2f58:	27010613          	addi	a2,sp,624
    2f5c:	17010593          	addi	a1,sp,368
    2f60:	01010513          	addi	a0,sp,16
    2f64:	b65ff0ef          	jal	2ac8 <poly1305_mac>
    2f68:	00410613          	addi	a2,sp,4
    2f6c:	03010593          	addi	a1,sp,48
    2f70:	05010513          	addi	a0,sp,80
    2f74:	d49ff0ef          	jal	2cbc <poly1305_key_gen(unsigned char*, unsigned char const*, unsigned char const*)>
    2f78:	40000613          	li	a2,1024
    2f7c:	00000593          	li	a1,0
    2f80:	27010513          	addi	a0,sp,624
    2f84:	d9cff0ef          	jal	2520 <memset>
    2f88:	00090a63          	beqz	s2,2f9c <test_chacha20poly1305(csr_vp_t volatile*) [clone .isra.0]+0x168>
    2f8c:	00090613          	mv	a2,s2
    2f90:	ab0b0593          	addi	a1,s6,-1360
    2f94:	27010513          	addi	a0,sp,624
    2f98:	f6cff0ef          	jal	2704 <memcpy>
    2f9c:	27010793          	addi	a5,sp,624
    2fa0:	00048613          	mv	a2,s1
    2fa4:	07010593          	addi	a1,sp,112
    2fa8:	01378533          	add	a0,a5,s3
    2fac:	f58ff0ef          	jal	2704 <memcpy>
    2fb0:	27010793          	addi	a5,sp,624
    2fb4:	00878433          	add	s0,a5,s0
    2fb8:	00090593          	mv	a1,s2
    2fbc:	00000613          	li	a2,0
    2fc0:	00040513          	mv	a0,s0
    2fc4:	ec8fd0ef          	jal	68c <encode_le64(unsigned char*, unsigned long long)>
    2fc8:	00048593          	mv	a1,s1
    2fcc:	00000613          	li	a2,0
    2fd0:	00840513          	addi	a0,s0,8
    2fd4:	eb8fd0ef          	jal	68c <encode_le64(unsigned char*, unsigned long long)>
    2fd8:	000b8693          	mv	a3,s7
    2fdc:	27010613          	addi	a2,sp,624
    2fe0:	05010593          	addi	a1,sp,80
    2fe4:	02010513          	addi	a0,sp,32
    2fe8:	ae1ff0ef          	jal	2ac8 <poly1305_mac>
    2fec:	01012703          	lw	a4,16(sp)
    2ff0:	02012783          	lw	a5,32(sp)
    2ff4:	06f71e63          	bne	a4,a5,3070 <test_chacha20poly1305(csr_vp_t volatile*) [clone .isra.0]+0x23c>
    2ff8:	01412703          	lw	a4,20(sp)
    2ffc:	02412783          	lw	a5,36(sp)
    3000:	06f71863          	bne	a4,a5,3070 <test_chacha20poly1305(csr_vp_t volatile*) [clone .isra.0]+0x23c>
    3004:	01812703          	lw	a4,24(sp)
    3008:	02812783          	lw	a5,40(sp)
    300c:	06f71263          	bne	a4,a5,3070 <test_chacha20poly1305(csr_vp_t volatile*) [clone .isra.0]+0x23c>
    3010:	01c12703          	lw	a4,28(sp)
    3014:	02c12783          	lw	a5,44(sp)
    3018:	04f71c63          	bne	a4,a5,3070 <test_chacha20poly1305(csr_vp_t volatile*) [clone .isra.0]+0x23c>
    301c:	07010593          	addi	a1,sp,112
    3020:	00100793          	li	a5,1
    3024:	00410713          	addi	a4,sp,4
    3028:	03010693          	addi	a3,sp,48
    302c:	00048613          	mv	a2,s1
    3030:	17010513          	addi	a0,sp,368
    3034:	ef4ff0ef          	jal	2728 <chacha20_encrypt>
    3038:	000065b7          	lui	a1,0x6
    303c:	b0c58593          	addi	a1,a1,-1268 # 5b0c <__modsi3+0x2c4>
    3040:	69812403          	lw	s0,1688(sp)
    3044:	69c12083          	lw	ra,1692(sp)
    3048:	69412483          	lw	s1,1684(sp)
    304c:	69012903          	lw	s2,1680(sp)
    3050:	68c12983          	lw	s3,1676(sp)
    3054:	68412a83          	lw	s5,1668(sp)
    3058:	68012b03          	lw	s6,1664(sp)
    305c:	67c12b83          	lw	s7,1660(sp)
    3060:	000a0513          	mv	a0,s4
    3064:	68812a03          	lw	s4,1672(sp)
    3068:	6a010113          	addi	sp,sp,1696
    306c:	958fd06f          	j	1c4 <uart_send>
    3070:	000065b7          	lui	a1,0x6
    3074:	b3058593          	addi	a1,a1,-1232 # 5b30 <__modsi3+0x2e8>
    3078:	fc9ff06f          	j	3040 <test_chacha20poly1305(csr_vp_t volatile*) [clone .isra.0]+0x20c>

0000307c <main>:
    307c:	e5010113          	addi	sp,sp,-432
    3080:	03000513          	li	a0,48
    3084:	1a112623          	sw	ra,428(sp)
    3088:	1a812423          	sw	s0,424(sp)
    308c:	1a912223          	sw	s1,420(sp)
    3090:	1b212023          	sw	s2,416(sp)
    3094:	19312e23          	sw	s3,412(sp)
    3098:	19412c23          	sw	s4,408(sp)
    309c:	19512a23          	sw	s5,404(sp)
    30a0:	19612823          	sw	s6,400(sp)
    30a4:	19712623          	sw	s7,396(sp)
    30a8:	19812423          	sw	s8,392(sp)
    30ac:	19912223          	sw	s9,388(sp)
    30b0:	19a12023          	sw	s10,384(sp)
    30b4:	17b12e23          	sw	s11,380(sp)
    30b8:	800fe0ef          	jal	10b8 <malloc>
    30bc:	00050413          	mv	s0,a0
    30c0:	00800513          	li	a0,8
    30c4:	ff5fd0ef          	jal	10b8 <malloc>
    30c8:	00050913          	mv	s2,a0
    30cc:	01c00513          	li	a0,28
    30d0:	fe9fd0ef          	jal	10b8 <malloc>
    30d4:	00050493          	mv	s1,a0
    30d8:	00400513          	li	a0,4
    30dc:	fddfd0ef          	jal	10b8 <malloc>
    30e0:	200007b7          	lui	a5,0x20000
    30e4:	00f52023          	sw	a5,0(a0)
    30e8:	00a4a023          	sw	a0,0(s1)
    30ec:	00400513          	li	a0,4
    30f0:	fc9fd0ef          	jal	10b8 <malloc>
    30f4:	200007b7          	lui	a5,0x20000
    30f8:	00478793          	addi	a5,a5,4 # 20000004 <_stack_start+0xfff0004>
    30fc:	00f52023          	sw	a5,0(a0)
    3100:	00a4a223          	sw	a0,4(s1)
    3104:	00400513          	li	a0,4
    3108:	fb1fd0ef          	jal	10b8 <malloc>
    310c:	200007b7          	lui	a5,0x20000
    3110:	00878793          	addi	a5,a5,8 # 20000008 <_stack_start+0xfff0008>
    3114:	00f52023          	sw	a5,0(a0)
    3118:	00a4a423          	sw	a0,8(s1)
    311c:	00400513          	li	a0,4
    3120:	f99fd0ef          	jal	10b8 <malloc>
    3124:	200007b7          	lui	a5,0x20000
    3128:	00c78793          	addi	a5,a5,12 # 2000000c <_stack_start+0xfff000c>
    312c:	00f52023          	sw	a5,0(a0)
    3130:	00a4a623          	sw	a0,12(s1)
    3134:	00400513          	li	a0,4
    3138:	f81fd0ef          	jal	10b8 <malloc>
    313c:	200007b7          	lui	a5,0x20000
    3140:	01078793          	addi	a5,a5,16 # 20000010 <_stack_start+0xfff0010>
    3144:	00f52023          	sw	a5,0(a0)
    3148:	00a4a823          	sw	a0,16(s1)
    314c:	00400513          	li	a0,4
    3150:	f69fd0ef          	jal	10b8 <malloc>
    3154:	200007b7          	lui	a5,0x20000
    3158:	01478793          	addi	a5,a5,20 # 20000014 <_stack_start+0xfff0014>
    315c:	00f52023          	sw	a5,0(a0)
    3160:	00a4aa23          	sw	a0,20(s1)
    3164:	00400513          	li	a0,4
    3168:	f51fd0ef          	jal	10b8 <malloc>
    316c:	200007b7          	lui	a5,0x20000
    3170:	01878793          	addi	a5,a5,24 # 20000018 <_stack_start+0xfff0018>
    3174:	00f52023          	sw	a5,0(a0)
    3178:	00a4ac23          	sw	a0,24(s1)
    317c:	00992023          	sw	s1,0(s2)
    3180:	01c00513          	li	a0,28
    3184:	f35fd0ef          	jal	10b8 <malloc>
    3188:	00050493          	mv	s1,a0
    318c:	00400513          	li	a0,4
    3190:	f29fd0ef          	jal	10b8 <malloc>
    3194:	200007b7          	lui	a5,0x20000
    3198:	01c78793          	addi	a5,a5,28 # 2000001c <_stack_start+0xfff001c>
    319c:	00f52023          	sw	a5,0(a0)
    31a0:	00a4a023          	sw	a0,0(s1)
    31a4:	00400513          	li	a0,4
    31a8:	f11fd0ef          	jal	10b8 <malloc>
    31ac:	200007b7          	lui	a5,0x20000
    31b0:	02078793          	addi	a5,a5,32 # 20000020 <_stack_start+0xfff0020>
    31b4:	00f52023          	sw	a5,0(a0)
    31b8:	00a4a223          	sw	a0,4(s1)
    31bc:	00400513          	li	a0,4
    31c0:	ef9fd0ef          	jal	10b8 <malloc>
    31c4:	200007b7          	lui	a5,0x20000
    31c8:	02478793          	addi	a5,a5,36 # 20000024 <_stack_start+0xfff0024>
    31cc:	00f52023          	sw	a5,0(a0)
    31d0:	00a4a423          	sw	a0,8(s1)
    31d4:	00400513          	li	a0,4
    31d8:	ee1fd0ef          	jal	10b8 <malloc>
    31dc:	200007b7          	lui	a5,0x20000
    31e0:	02878793          	addi	a5,a5,40 # 20000028 <_stack_start+0xfff0028>
    31e4:	00f52023          	sw	a5,0(a0)
    31e8:	00a4a623          	sw	a0,12(s1)
    31ec:	00400513          	li	a0,4
    31f0:	ec9fd0ef          	jal	10b8 <malloc>
    31f4:	200007b7          	lui	a5,0x20000
    31f8:	02c78793          	addi	a5,a5,44 # 2000002c <_stack_start+0xfff002c>
    31fc:	00f52023          	sw	a5,0(a0)
    3200:	00a4a823          	sw	a0,16(s1)
    3204:	00400513          	li	a0,4
    3208:	eb1fd0ef          	jal	10b8 <malloc>
    320c:	200007b7          	lui	a5,0x20000
    3210:	03078793          	addi	a5,a5,48 # 20000030 <_stack_start+0xfff0030>
    3214:	00f52023          	sw	a5,0(a0)
    3218:	00a4aa23          	sw	a0,20(s1)
    321c:	00400513          	li	a0,4
    3220:	e99fd0ef          	jal	10b8 <malloc>
    3224:	200007b7          	lui	a5,0x20000
    3228:	03478793          	addi	a5,a5,52 # 20000034 <_stack_start+0xfff0034>
    322c:	00f52023          	sw	a5,0(a0)
    3230:	00a4ac23          	sw	a0,24(s1)
    3234:	00992223          	sw	s1,4(s2)
    3238:	01242023          	sw	s2,0(s0)
    323c:	01000513          	li	a0,16
    3240:	e79fd0ef          	jal	10b8 <malloc>
    3244:	00050493          	mv	s1,a0
    3248:	00400513          	li	a0,4
    324c:	e6dfd0ef          	jal	10b8 <malloc>
    3250:	200007b7          	lui	a5,0x20000
    3254:	03878793          	addi	a5,a5,56 # 20000038 <_stack_start+0xfff0038>
    3258:	00f52023          	sw	a5,0(a0)
    325c:	00a4a023          	sw	a0,0(s1)
    3260:	00400513          	li	a0,4
    3264:	e55fd0ef          	jal	10b8 <malloc>
    3268:	200007b7          	lui	a5,0x20000
    326c:	03c78793          	addi	a5,a5,60 # 2000003c <_stack_start+0xfff003c>
    3270:	00f52023          	sw	a5,0(a0)
    3274:	00a4a223          	sw	a0,4(s1)
    3278:	00400513          	li	a0,4
    327c:	e3dfd0ef          	jal	10b8 <malloc>
    3280:	200007b7          	lui	a5,0x20000
    3284:	04078793          	addi	a5,a5,64 # 20000040 <_stack_start+0xfff0040>
    3288:	00f52023          	sw	a5,0(a0)
    328c:	00a4a423          	sw	a0,8(s1)
    3290:	00400513          	li	a0,4
    3294:	e25fd0ef          	jal	10b8 <malloc>
    3298:	200007b7          	lui	a5,0x20000
    329c:	04478793          	addi	a5,a5,68 # 20000044 <_stack_start+0xfff0044>
    32a0:	00f52023          	sw	a5,0(a0)
    32a4:	00a4a623          	sw	a0,12(s1)
    32a8:	00942223          	sw	s1,4(s0)
    32ac:	00400513          	li	a0,4
    32b0:	e09fd0ef          	jal	10b8 <malloc>
    32b4:	200007b7          	lui	a5,0x20000
    32b8:	04878793          	addi	a5,a5,72 # 20000048 <_stack_start+0xfff0048>
    32bc:	00f52023          	sw	a5,0(a0)
    32c0:	200004b7          	lui	s1,0x20000
    32c4:	200009b7          	lui	s3,0x20000
    32c8:	00a42423          	sw	a0,8(s0)
    32cc:	00c40a13          	addi	s4,s0,12
    32d0:	04c48493          	addi	s1,s1,76 # 2000004c <_stack_start+0xfff004c>
    32d4:	07c98993          	addi	s3,s3,124 # 2000007c <_stack_start+0xfff007c>
    32d8:	00c00513          	li	a0,12
    32dc:	dddfd0ef          	jal	10b8 <malloc>
    32e0:	00050913          	mv	s2,a0
    32e4:	00400513          	li	a0,4
    32e8:	dd1fd0ef          	jal	10b8 <malloc>
    32ec:	00952023          	sw	s1,0(a0)
    32f0:	00a92023          	sw	a0,0(s2)
    32f4:	00400513          	li	a0,4
    32f8:	dc1fd0ef          	jal	10b8 <malloc>
    32fc:	00448793          	addi	a5,s1,4
    3300:	00f52023          	sw	a5,0(a0)
    3304:	00a92223          	sw	a0,4(s2)
    3308:	00400513          	li	a0,4
    330c:	dadfd0ef          	jal	10b8 <malloc>
    3310:	00848793          	addi	a5,s1,8
    3314:	00f52023          	sw	a5,0(a0)
    3318:	00a92423          	sw	a0,8(s2)
    331c:	012a2023          	sw	s2,0(s4)
    3320:	00c48493          	addi	s1,s1,12
    3324:	004a0a13          	addi	s4,s4,4
    3328:	fb3498e3          	bne	s1,s3,32d8 <main+0x25c>
    332c:	00400513          	li	a0,4
    3330:	d89fd0ef          	jal	10b8 <malloc>
    3334:	00952023          	sw	s1,0(a0)
    3338:	00a42e23          	sw	a0,28(s0)
    333c:	00400513          	li	a0,4
    3340:	d79fd0ef          	jal	10b8 <malloc>
    3344:	200007b7          	lui	a5,0x20000
    3348:	08078793          	addi	a5,a5,128 # 20000080 <_stack_start+0xfff0080>
    334c:	00f52023          	sw	a5,0(a0)
    3350:	02a42023          	sw	a0,32(s0)
    3354:	00400513          	li	a0,4
    3358:	d61fd0ef          	jal	10b8 <malloc>
    335c:	00050493          	mv	s1,a0
    3360:	00400513          	li	a0,4
    3364:	d55fd0ef          	jal	10b8 <malloc>
    3368:	200007b7          	lui	a5,0x20000
    336c:	08478793          	addi	a5,a5,132 # 20000084 <_stack_start+0xfff0084>
    3370:	00f52023          	sw	a5,0(a0)
    3374:	00a4a023          	sw	a0,0(s1)
    3378:	02942223          	sw	s1,36(s0)
    337c:	10000513          	li	a0,256
    3380:	d39fd0ef          	jal	10b8 <malloc>
    3384:	200004b7          	lui	s1,0x20000
    3388:	20001a37          	lui	s4,0x20001
    338c:	00050913          	mv	s2,a0
    3390:	00050a93          	mv	s5,a0
    3394:	40048493          	addi	s1,s1,1024 # 20000400 <_stack_start+0xfff0400>
    3398:	800a0a13          	addi	s4,s4,-2048 # 20000800 <_stack_start+0xfff0800>
    339c:	01000513          	li	a0,16
    33a0:	d19fd0ef          	jal	10b8 <malloc>
    33a4:	00050993          	mv	s3,a0
    33a8:	00400513          	li	a0,4
    33ac:	d0dfd0ef          	jal	10b8 <malloc>
    33b0:	00952023          	sw	s1,0(a0)
    33b4:	00a9a023          	sw	a0,0(s3)
    33b8:	00400513          	li	a0,4
    33bc:	cfdfd0ef          	jal	10b8 <malloc>
    33c0:	00448793          	addi	a5,s1,4
    33c4:	00f52023          	sw	a5,0(a0)
    33c8:	00a9a223          	sw	a0,4(s3)
    33cc:	00400513          	li	a0,4
    33d0:	ce9fd0ef          	jal	10b8 <malloc>
    33d4:	00848793          	addi	a5,s1,8
    33d8:	00f52023          	sw	a5,0(a0)
    33dc:	00a9a423          	sw	a0,8(s3)
    33e0:	00400513          	li	a0,4
    33e4:	cd5fd0ef          	jal	10b8 <malloc>
    33e8:	00c48793          	addi	a5,s1,12
    33ec:	00f52023          	sw	a5,0(a0)
    33f0:	00a9a623          	sw	a0,12(s3)
    33f4:	013aa023          	sw	s3,0(s5)
    33f8:	01048493          	addi	s1,s1,16
    33fc:	004a8a93          	addi	s5,s5,4
    3400:	f9449ee3          	bne	s1,s4,339c <main+0x320>
    3404:	03242423          	sw	s2,40(s0)
    3408:	10000513          	li	a0,256
    340c:	cadfd0ef          	jal	10b8 <malloc>
    3410:	20004a37          	lui	s4,0x20004
    3414:	00050993          	mv	s3,a0
    3418:	00050a93          	mv	s5,a0
    341c:	200024b7          	lui	s1,0x20002
    3420:	e00a0a13          	addi	s4,s4,-512 # 20003e00 <_stack_start+0xfff3e00>
    3424:	07800513          	li	a0,120
    3428:	c91fd0ef          	jal	10b8 <malloc>
    342c:	00050913          	mv	s2,a0
    3430:	00400513          	li	a0,4
    3434:	c85fd0ef          	jal	10b8 <malloc>
    3438:	00952023          	sw	s1,0(a0)
    343c:	00a92023          	sw	a0,0(s2)
    3440:	00400513          	li	a0,4
    3444:	c75fd0ef          	jal	10b8 <malloc>
    3448:	00448793          	addi	a5,s1,4 # 20002004 <_stack_start+0xfff2004>
    344c:	00f52023          	sw	a5,0(a0)
    3450:	00a92223          	sw	a0,4(s2)
    3454:	00400513          	li	a0,4
    3458:	c61fd0ef          	jal	10b8 <malloc>
    345c:	00848793          	addi	a5,s1,8
    3460:	00f52023          	sw	a5,0(a0)
    3464:	00a92423          	sw	a0,8(s2)
    3468:	00400513          	li	a0,4
    346c:	c4dfd0ef          	jal	10b8 <malloc>
    3470:	00c48793          	addi	a5,s1,12
    3474:	00f52023          	sw	a5,0(a0)
    3478:	00a92623          	sw	a0,12(s2)
    347c:	00400513          	li	a0,4
    3480:	c39fd0ef          	jal	10b8 <malloc>
    3484:	01048793          	addi	a5,s1,16
    3488:	00f52023          	sw	a5,0(a0)
    348c:	00a92823          	sw	a0,16(s2)
    3490:	00400513          	li	a0,4
    3494:	c25fd0ef          	jal	10b8 <malloc>
    3498:	01448793          	addi	a5,s1,20
    349c:	00f52023          	sw	a5,0(a0)
    34a0:	00a92a23          	sw	a0,20(s2)
    34a4:	00400513          	li	a0,4
    34a8:	c11fd0ef          	jal	10b8 <malloc>
    34ac:	01848793          	addi	a5,s1,24
    34b0:	00f52023          	sw	a5,0(a0)
    34b4:	00a92c23          	sw	a0,24(s2)
    34b8:	00400513          	li	a0,4
    34bc:	bfdfd0ef          	jal	10b8 <malloc>
    34c0:	01c48793          	addi	a5,s1,28
    34c4:	00f52023          	sw	a5,0(a0)
    34c8:	00a92e23          	sw	a0,28(s2)
    34cc:	00400513          	li	a0,4
    34d0:	be9fd0ef          	jal	10b8 <malloc>
    34d4:	02048793          	addi	a5,s1,32
    34d8:	00f52023          	sw	a5,0(a0)
    34dc:	02a92023          	sw	a0,32(s2)
    34e0:	00400513          	li	a0,4
    34e4:	bd5fd0ef          	jal	10b8 <malloc>
    34e8:	02448793          	addi	a5,s1,36
    34ec:	00f52023          	sw	a5,0(a0)
    34f0:	02a92223          	sw	a0,36(s2)
    34f4:	00400513          	li	a0,4
    34f8:	bc1fd0ef          	jal	10b8 <malloc>
    34fc:	02848793          	addi	a5,s1,40
    3500:	00f52023          	sw	a5,0(a0)
    3504:	02a92423          	sw	a0,40(s2)
    3508:	00400513          	li	a0,4
    350c:	badfd0ef          	jal	10b8 <malloc>
    3510:	02c48793          	addi	a5,s1,44
    3514:	00f52023          	sw	a5,0(a0)
    3518:	02a92623          	sw	a0,44(s2)
    351c:	00400513          	li	a0,4
    3520:	b99fd0ef          	jal	10b8 <malloc>
    3524:	03048793          	addi	a5,s1,48
    3528:	00f52023          	sw	a5,0(a0)
    352c:	02a92823          	sw	a0,48(s2)
    3530:	00400513          	li	a0,4
    3534:	b85fd0ef          	jal	10b8 <malloc>
    3538:	03448793          	addi	a5,s1,52
    353c:	00f52023          	sw	a5,0(a0)
    3540:	02a92a23          	sw	a0,52(s2)
    3544:	00400513          	li	a0,4
    3548:	b71fd0ef          	jal	10b8 <malloc>
    354c:	03848793          	addi	a5,s1,56
    3550:	00f52023          	sw	a5,0(a0)
    3554:	02a92c23          	sw	a0,56(s2)
    3558:	00400513          	li	a0,4
    355c:	b5dfd0ef          	jal	10b8 <malloc>
    3560:	03c48793          	addi	a5,s1,60
    3564:	00f52023          	sw	a5,0(a0)
    3568:	02a92e23          	sw	a0,60(s2)
    356c:	00400513          	li	a0,4
    3570:	b49fd0ef          	jal	10b8 <malloc>
    3574:	04048793          	addi	a5,s1,64
    3578:	00f52023          	sw	a5,0(a0)
    357c:	04a92023          	sw	a0,64(s2)
    3580:	00400513          	li	a0,4
    3584:	b35fd0ef          	jal	10b8 <malloc>
    3588:	04448793          	addi	a5,s1,68
    358c:	00f52023          	sw	a5,0(a0)
    3590:	04a92223          	sw	a0,68(s2)
    3594:	00400513          	li	a0,4
    3598:	b21fd0ef          	jal	10b8 <malloc>
    359c:	04848793          	addi	a5,s1,72
    35a0:	00f52023          	sw	a5,0(a0)
    35a4:	04a92423          	sw	a0,72(s2)
    35a8:	00400513          	li	a0,4
    35ac:	b0dfd0ef          	jal	10b8 <malloc>
    35b0:	04c48793          	addi	a5,s1,76
    35b4:	00f52023          	sw	a5,0(a0)
    35b8:	04a92623          	sw	a0,76(s2)
    35bc:	00400513          	li	a0,4
    35c0:	af9fd0ef          	jal	10b8 <malloc>
    35c4:	05048793          	addi	a5,s1,80
    35c8:	00f52023          	sw	a5,0(a0)
    35cc:	04a92823          	sw	a0,80(s2)
    35d0:	00400513          	li	a0,4
    35d4:	ae5fd0ef          	jal	10b8 <malloc>
    35d8:	05448793          	addi	a5,s1,84
    35dc:	00f52023          	sw	a5,0(a0)
    35e0:	04a92a23          	sw	a0,84(s2)
    35e4:	00400513          	li	a0,4
    35e8:	ad1fd0ef          	jal	10b8 <malloc>
    35ec:	05848793          	addi	a5,s1,88
    35f0:	00f52023          	sw	a5,0(a0)
    35f4:	04a92c23          	sw	a0,88(s2)
    35f8:	00400513          	li	a0,4
    35fc:	abdfd0ef          	jal	10b8 <malloc>
    3600:	05c48793          	addi	a5,s1,92
    3604:	00f52023          	sw	a5,0(a0)
    3608:	04a92e23          	sw	a0,92(s2)
    360c:	00400513          	li	a0,4
    3610:	aa9fd0ef          	jal	10b8 <malloc>
    3614:	06048793          	addi	a5,s1,96
    3618:	00f52023          	sw	a5,0(a0)
    361c:	06a92023          	sw	a0,96(s2)
    3620:	00400513          	li	a0,4
    3624:	a95fd0ef          	jal	10b8 <malloc>
    3628:	06448793          	addi	a5,s1,100
    362c:	00f52023          	sw	a5,0(a0)
    3630:	06a92223          	sw	a0,100(s2)
    3634:	00400513          	li	a0,4
    3638:	a81fd0ef          	jal	10b8 <malloc>
    363c:	06848793          	addi	a5,s1,104
    3640:	00f52023          	sw	a5,0(a0)
    3644:	06a92423          	sw	a0,104(s2)
    3648:	00400513          	li	a0,4
    364c:	a6dfd0ef          	jal	10b8 <malloc>
    3650:	06c48793          	addi	a5,s1,108
    3654:	00f52023          	sw	a5,0(a0)
    3658:	06a92623          	sw	a0,108(s2)
    365c:	00400513          	li	a0,4
    3660:	a59fd0ef          	jal	10b8 <malloc>
    3664:	07048793          	addi	a5,s1,112
    3668:	00f52023          	sw	a5,0(a0)
    366c:	06a92823          	sw	a0,112(s2)
    3670:	00400513          	li	a0,4
    3674:	a45fd0ef          	jal	10b8 <malloc>
    3678:	07448793          	addi	a5,s1,116
    367c:	00f52023          	sw	a5,0(a0)
    3680:	06a92a23          	sw	a0,116(s2)
    3684:	012aa023          	sw	s2,0(s5)
    3688:	07848493          	addi	s1,s1,120
    368c:	004a8a93          	addi	s5,s5,4
    3690:	d9449ae3          	bne	s1,s4,3424 <main+0x3a8>
    3694:	01c42783          	lw	a5,28(s0)
    3698:	03342623          	sw	s3,44(s0)
    369c:	0007a783          	lw	a5,0(a5)
    36a0:	0027d703          	lhu	a4,2(a5)
    36a4:	0000d7b7          	lui	a5,0xd
    36a8:	cba78793          	addi	a5,a5,-838 # ccba <_idata_start+0x62ee>
    36ac:	00f71e63          	bne	a4,a5,36c8 <main+0x64c>
    36b0:	01c42783          	lw	a5,28(s0)
    36b4:	0007a783          	lw	a5,0(a5)
    36b8:	0007d703          	lhu	a4,0(a5)
    36bc:	0000d7b7          	lui	a5,0xd
    36c0:	aca78793          	addi	a5,a5,-1334 # caca <_idata_start+0x60fe>
    36c4:	00f70c63          	beq	a4,a5,36dc <main+0x660>
    36c8:	000065b7          	lui	a1,0x6
    36cc:	b7858593          	addi	a1,a1,-1160 # 5b78 <__modsi3+0x330>
    36d0:	00040513          	mv	a0,s0
    36d4:	af1fc0ef          	jal	1c4 <uart_send>
    36d8:	00100073          	ebreak
    36dc:	000065b7          	lui	a1,0x6
    36e0:	ba058593          	addi	a1,a1,-1120 # 5ba0 <__modsi3+0x358>
    36e4:	00040513          	mv	a0,s0
    36e8:	addfc0ef          	jal	1c4 <uart_send>
    36ec:	000065b7          	lui	a1,0x6
    36f0:	bd058593          	addi	a1,a1,-1072 # 5bd0 <__modsi3+0x388>
    36f4:	00040513          	mv	a0,s0
    36f8:	acdfc0ef          	jal	1c4 <uart_send>
    36fc:	02042783          	lw	a5,32(s0)
    3700:	00040513          	mv	a0,s0
    3704:	100009b7          	lui	s3,0x10000
    3708:	0007a783          	lw	a5,0(a5)
    370c:	00098493          	mv	s1,s3
    3710:	0037c583          	lbu	a1,3(a5)
    3714:	9f5fc0ef          	jal	108 <uart_send_dec>
    3718:	02e00593          	li	a1,46
    371c:	00040513          	mv	a0,s0
    3720:	955fc0ef          	jal	74 <uart_send_char>
    3724:	02042783          	lw	a5,32(s0)
    3728:	00040513          	mv	a0,s0
    372c:	0007a783          	lw	a5,0(a5)
    3730:	0027c583          	lbu	a1,2(a5)
    3734:	9d5fc0ef          	jal	108 <uart_send_dec>
    3738:	02e00593          	li	a1,46
    373c:	00040513          	mv	a0,s0
    3740:	935fc0ef          	jal	74 <uart_send_char>
    3744:	02042783          	lw	a5,32(s0)
    3748:	00040513          	mv	a0,s0
    374c:	0007a783          	lw	a5,0(a5)
    3750:	0007d583          	lhu	a1,0(a5)
    3754:	9b5fc0ef          	jal	108 <uart_send_dec>
    3758:	000065b7          	lui	a1,0x6
    375c:	bec58593          	addi	a1,a1,-1044 # 5bec <__modsi3+0x3a4>
    3760:	00040513          	mv	a0,s0
    3764:	a61fc0ef          	jal	1c4 <uart_send>
    3768:	000065b7          	lui	a1,0x6
    376c:	c1c58593          	addi	a1,a1,-996 # 5c1c <__modsi3+0x3d4>
    3770:	00040513          	mv	a0,s0
    3774:	a51fc0ef          	jal	1c4 <uart_send>
    3778:	000065b7          	lui	a1,0x6
    377c:	c4c58593          	addi	a1,a1,-948 # 5c4c <__modsi3+0x404>
    3780:	00040513          	mv	a0,s0
    3784:	a41fc0ef          	jal	1c4 <uart_send>
    3788:	00098713          	mv	a4,s3
    378c:	00174683          	lbu	a3,1(a4)
    3790:	00074783          	lbu	a5,0(a4)
    3794:	00d7e7b3          	or	a5,a5,a3
    3798:	00274683          	lbu	a3,2(a4)
    379c:	00374703          	lbu	a4,3(a4)
    37a0:	00d7e7b3          	or	a5,a5,a3
    37a4:	00e7e7b3          	or	a5,a5,a4
    37a8:	04079263          	bnez	a5,37ec <main+0x770>
    37ac:	6201b7b7          	lui	a5,0x6201b
    37b0:	8c078793          	addi	a5,a5,-1856 # 6201a8c0 <_stack_start+0x5200a8c0>
    37b4:	00f4a023          	sw	a5,0(s1)
    37b8:	010007b7          	lui	a5,0x1000
    37bc:	fff78793          	addi	a5,a5,-1 # ffffff <_idata_start+0xff9633>
    37c0:	00f4a223          	sw	a5,4(s1)
    37c4:	cacac7b7          	lui	a5,0xcacac
    37c8:	acc78793          	addi	a5,a5,-1332 # cacabacc <_stack_start+0xbac9bacc>
    37cc:	00f4a423          	sw	a5,8(s1)
    37d0:	a8c007b7          	lui	a5,0xa8c00
    37d4:	10078793          	addi	a5,a5,256 # a8c00100 <_stack_start+0x98bf0100>
    37d8:	00f4a623          	sw	a5,12(s1)
    37dc:	e0100793          	li	a5,-511
    37e0:	00f49823          	sh	a5,16(s1)
    37e4:	00100793          	li	a5,1
    37e8:	00f48923          	sb	a5,18(s1)
    37ec:	00040513          	mv	a0,s0
    37f0:	87cfe0ef          	jal	186c <show_network(csr_vp_t volatile*, net_config_t*) [clone .constprop.0]>
    37f4:	000065b7          	lui	a1,0x6
    37f8:	c5c58593          	addi	a1,a1,-932 # 5c5c <__modsi3+0x414>
    37fc:	00040513          	mv	a0,s0
    3800:	9c5fc0ef          	jal	1c4 <uart_send>
    3804:	00006bb7          	lui	s7,0x6
    3808:	c84b8593          	addi	a1,s7,-892 # 5c84 <__modsi3+0x43c>
    380c:	00040513          	mv	a0,s0
    3810:	9b5fc0ef          	jal	1c4 <uart_send>
    3814:	81418793          	addi	a5,gp,-2028 # 10000014 <eth_packet_rx>
    3818:	00f12023          	sw	a5,0(sp)
    381c:	00007ab7          	lui	s5,0x7
    3820:	61c48793          	addi	a5,s1,1564
    3824:	00000913          	li	s2,0
    3828:	00f12223          	sw	a5,4(sp)
    382c:	818a8a93          	addi	s5,s5,-2024 # 6818 <__modsi3+0xfd0>
    3830:	5f000c13          	li	s8,1520
    3834:	60000c93          	li	s9,1536
    3838:	00800d13          	li	s10,8
    383c:	00100b13          	li	s6,1
    3840:	00200d93          	li	s11,2
    3844:	00048a23          	sb	zero,20(s1)
    3848:	00049b23          	sh	zero,22(s1)
    384c:	00042783          	lw	a5,0(s0)
    3850:	0047a783          	lw	a5,4(a5)
    3854:	0187a783          	lw	a5,24(a5)
    3858:	0007a783          	lw	a5,0(a5)
    385c:	0007a783          	lw	a5,0(a5)
    3860:	0017f793          	andi	a5,a5,1
    3864:	0e078e63          	beqz	a5,3960 <main+0x8e4>
    3868:	00042783          	lw	a5,0(s0)
    386c:	01448713          	addi	a4,s1,20
    3870:	0047a783          	lw	a5,4(a5)
    3874:	0107a783          	lw	a5,16(a5)
    3878:	0007a783          	lw	a5,0(a5)
    387c:	0007a783          	lw	a5,0(a5)
    3880:	0037d793          	srli	a5,a5,0x3
    3884:	0077f793          	andi	a5,a5,7
    3888:	00f48aa3          	sb	a5,21(s1)
    388c:	00000793          	li	a5,0
    3890:	06fc6263          	bltu	s8,a5,38f4 <main+0x878>
    3894:	00042683          	lw	a3,0(s0)
    3898:	0046a683          	lw	a3,4(a3)
    389c:	0006a683          	lw	a3,0(a3)
    38a0:	0006a683          	lw	a3,0(a3)
    38a4:	0006a683          	lw	a3,0(a3)
    38a8:	00d72423          	sw	a3,8(a4)
    38ac:	00042683          	lw	a3,0(s0)
    38b0:	0046a683          	lw	a3,4(a3)
    38b4:	0046a683          	lw	a3,4(a3)
    38b8:	0006a683          	lw	a3,0(a3)
    38bc:	0006a683          	lw	a3,0(a3)
    38c0:	00d72623          	sw	a3,12(a4)
    38c4:	00042683          	lw	a3,0(s0)
    38c8:	0046a683          	lw	a3,4(a3)
    38cc:	0086a683          	lw	a3,8(a3)
    38d0:	0006a683          	lw	a3,0(a3)
    38d4:	0006a683          	lw	a3,0(a3)
    38d8:	00d72823          	sw	a3,16(a4)
    38dc:	00042683          	lw	a3,0(s0)
    38e0:	0046a683          	lw	a3,4(a3)
    38e4:	00c6a683          	lw	a3,12(a3)
    38e8:	0006a683          	lw	a3,0(a3)
    38ec:	0006a683          	lw	a3,0(a3)
    38f0:	00d72a23          	sw	a3,20(a4)
    38f4:	00042683          	lw	a3,0(s0)
    38f8:	01070713          	addi	a4,a4,16
    38fc:	0046a683          	lw	a3,4(a3)
    3900:	0106a683          	lw	a3,16(a3)
    3904:	0006a683          	lw	a3,0(a3)
    3908:	0006a683          	lw	a3,0(a3)
    390c:	01069613          	slli	a2,a3,0x10
    3910:	06065a63          	bgez	a2,3984 <main+0x908>
    3914:	00042703          	lw	a4,0(s0)
    3918:	00472703          	lw	a4,4(a4)
    391c:	01072703          	lw	a4,16(a4)
    3920:	00072703          	lw	a4,0(a4)
    3924:	00275703          	lhu	a4,2(a4)
    3928:	00177693          	andi	a3,a4,1
    392c:	04069663          	bnez	a3,3978 <main+0x8fc>
    3930:	00fcf463          	bgeu	s9,a5,3938 <main+0x8bc>
    3934:	60000793          	li	a5,1536
    3938:	00f4ac23          	sw	a5,24(s1)
    393c:	00042783          	lw	a5,0(s0)
    3940:	0047a783          	lw	a5,4(a5)
    3944:	0147a783          	lw	a5,20(a5)
    3948:	0007a703          	lw	a4,0(a5)
    394c:	00072783          	lw	a5,0(a4)
    3950:	0017e793          	ori	a5,a5,1
    3954:	00f72023          	sw	a5,0(a4)
    3958:	0184a783          	lw	a5,24(s1)
    395c:	04079663          	bnez	a5,39a8 <main+0x92c>
    3960:	00842783          	lw	a5,8(s0)
    3964:	0007a703          	lw	a4,0(a5)
    3968:	00072783          	lw	a5,0(a4)
    396c:	dff7f793          	andi	a5,a5,-513
    3970:	00f72023          	sw	a5,0(a4)
    3974:	3580006f          	j	3ccc <main+0xc50>
    3978:	00178793          	addi	a5,a5,1
    397c:	00175713          	srli	a4,a4,0x1
    3980:	fa9ff06f          	j	3928 <main+0x8ac>
    3984:	00042683          	lw	a3,0(s0)
    3988:	01078793          	addi	a5,a5,16
    398c:	0046a683          	lw	a3,4(a3)
    3990:	0146a683          	lw	a3,20(a3)
    3994:	0006a603          	lw	a2,0(a3)
    3998:	00062683          	lw	a3,0(a2)
    399c:	0016e693          	ori	a3,a3,1
    39a0:	00d62023          	sw	a3,0(a2)
    39a4:	eedff06f          	j	3890 <main+0x814>
    39a8:	00842783          	lw	a5,8(s0)
    39ac:	0007a703          	lw	a4,0(a5)
    39b0:	00072783          	lw	a5,0(a4)
    39b4:	2007e793          	ori	a5,a5,512
    39b8:	00f72023          	sw	a5,0(a4)
    39bc:	0284c783          	lbu	a5,40(s1)
    39c0:	35a79663          	bne	a5,s10,3d0c <main+0xc90>
    39c4:	0294c783          	lbu	a5,41(s1)
    39c8:	00600713          	li	a4,6
    39cc:	18e78663          	beq	a5,a4,3b58 <main+0xadc>
    39d0:	32079e63          	bnez	a5,3d0c <main+0xc90>
    39d4:	02a4c783          	lbu	a5,42(s1)
    39d8:	04000713          	li	a4,64
    39dc:	0f07f793          	andi	a5,a5,240
    39e0:	32e79663          	bne	a5,a4,3d0c <main+0xc90>
    39e4:	0334c783          	lbu	a5,51(s1)
    39e8:	00100713          	li	a4,1
    39ec:	00e78e63          	beq	a5,a4,3a08 <main+0x98c>
    39f0:	01100713          	li	a4,17
    39f4:	30e79c63          	bne	a5,a4,3d0c <main+0xc90>
    39f8:	2a090a63          	beqz	s2,3cac <main+0xc30>
    39fc:	000065b7          	lui	a1,0x6
    3a00:	d0058593          	addi	a1,a1,-768 # 5d00 <__modsi3+0x4b8>
    3a04:	3140006f          	j	3d18 <main+0xc9c>
    3a08:	02090863          	beqz	s2,3a38 <main+0x9bc>
    3a0c:	000065b7          	lui	a1,0x6
    3a10:	cd858593          	addi	a1,a1,-808 # 5cd8 <__modsi3+0x490>
    3a14:	00040513          	mv	a0,s0
    3a18:	facfc0ef          	jal	1c4 <uart_send>
    3a1c:	0184a583          	lw	a1,24(s1)
    3a20:	00040513          	mv	a0,s0
    3a24:	ee4fc0ef          	jal	108 <uart_send_dec>
    3a28:	000065b7          	lui	a1,0x6
    3a2c:	d6c58593          	addi	a1,a1,-660 # 5d6c <__modsi3+0x524>
    3a30:	00040513          	mv	a0,s0
    3a34:	f90fc0ef          	jal	1c4 <uart_send>
    3a38:	00400613          	li	a2,4
    3a3c:	00098593          	mv	a1,s3
    3a40:	03a48513          	addi	a0,s1,58
    3a44:	a31fc0ef          	jal	474 <memcmp>
    3a48:	0154c783          	lbu	a5,21(s1)
    3a4c:	26051063          	bnez	a0,3cac <main+0xc30>
    3a50:	03e4c683          	lbu	a3,62(s1)
    3a54:	00800713          	li	a4,8
    3a58:	24e69a63          	bne	a3,a4,3cac <main+0xc30>
    3a5c:	03f4c703          	lbu	a4,63(s1)
    3a60:	24071663          	bnez	a4,3cac <main+0xc30>
    3a64:	0184aa03          	lw	s4,24(s1)
    3a68:	60f48e23          	sb	a5,1564(s1)
    3a6c:	00600613          	li	a2,6
    3a70:	00100793          	li	a5,1
    3a74:	02248593          	addi	a1,s1,34
    3a78:	62448513          	addi	a0,s1,1572
    3a7c:	60f48fa3          	sb	a5,1567(s1)
    3a80:	6344a023          	sw	s4,1568(s1)
    3a84:	c81fe0ef          	jal	2704 <memcpy>
    3a88:	00600613          	li	a2,6
    3a8c:	00848593          	addi	a1,s1,8
    3a90:	62a48513          	addi	a0,s1,1578
    3a94:	c71fe0ef          	jal	2704 <memcpy>
    3a98:	00450737          	lui	a4,0x450
    3a9c:	00870713          	addi	a4,a4,8 # 450008 <_idata_start+0x44963c>
    3aa0:	62e4a823          	sw	a4,1584(s1)
    3aa4:	02c4d703          	lhu	a4,44(s1)
    3aa8:	00400613          	li	a2,4
    3aac:	00098593          	mv	a1,s3
    3ab0:	62e49a23          	sh	a4,1588(s1)
    3ab4:	63e48513          	addi	a0,s1,1598
    3ab8:	01ff0737          	lui	a4,0x1ff0
    3abc:	62e4ac23          	sw	a4,1592(s1)
    3ac0:	62049b23          	sh	zero,1590(s1)
    3ac4:	62049e23          	sh	zero,1596(s1)
    3ac8:	c3dfe0ef          	jal	2704 <memcpy>
    3acc:	00400613          	li	a2,4
    3ad0:	03648593          	addi	a1,s1,54
    3ad4:	64248513          	addi	a0,s1,1602
    3ad8:	c2dfe0ef          	jal	2704 <memcpy>
    3adc:	01400593          	li	a1,20
    3ae0:	63248513          	addi	a0,s1,1586
    3ae4:	905fc0ef          	jal	3e8 <net_calculate_checksum>
    3ae8:	00851713          	slli	a4,a0,0x8
    3aec:	00855513          	srli	a0,a0,0x8
    3af0:	00a76733          	or	a4,a4,a0
    3af4:	62e49e23          	sh	a4,1596(s1)
    3af8:	0424d703          	lhu	a4,66(s1)
    3afc:	fd6a0613          	addi	a2,s4,-42
    3b00:	04648593          	addi	a1,s1,70
    3b04:	64e49523          	sh	a4,1610(s1)
    3b08:	0444d703          	lhu	a4,68(s1)
    3b0c:	64e48513          	addi	a0,s1,1614
    3b10:	64049323          	sh	zero,1606(s1)
    3b14:	64e49623          	sh	a4,1612(s1)
    3b18:	64049423          	sh	zero,1608(s1)
    3b1c:	be9fe0ef          	jal	2704 <memcpy>
    3b20:	fdea0593          	addi	a1,s4,-34
    3b24:	64648513          	addi	a0,s1,1606
    3b28:	8c1fc0ef          	jal	3e8 <net_calculate_checksum>
    3b2c:	00851793          	slli	a5,a0,0x8
    3b30:	00855513          	srli	a0,a0,0x8
    3b34:	00a7e7b3          	or	a5,a5,a0
    3b38:	64f49423          	sh	a5,1608(s1)
    3b3c:	e1c18593          	addi	a1,gp,-484 # 1000061c <eth_packet_tx>
    3b40:	00040513          	mv	a0,s0
    3b44:	decfe0ef          	jal	2130 <eth_send_packet.isra.0>
    3b48:	16090263          	beqz	s2,3cac <main+0xc30>
    3b4c:	000065b7          	lui	a1,0x6
    3b50:	cec58593          	addi	a1,a1,-788 # 5cec <__modsi3+0x4a4>
    3b54:	1340006f          	j	3c88 <main+0xc0c>
    3b58:	02090863          	beqz	s2,3b88 <main+0xb0c>
    3b5c:	000065b7          	lui	a1,0x6
    3b60:	cb058593          	addi	a1,a1,-848 # 5cb0 <__modsi3+0x468>
    3b64:	00040513          	mv	a0,s0
    3b68:	e5cfc0ef          	jal	1c4 <uart_send>
    3b6c:	0184a583          	lw	a1,24(s1)
    3b70:	00040513          	mv	a0,s0
    3b74:	d94fc0ef          	jal	108 <uart_send_dec>
    3b78:	000065b7          	lui	a1,0x6
    3b7c:	d6c58593          	addi	a1,a1,-660 # 5d6c <__modsi3+0x524>
    3b80:	00040513          	mv	a0,s0
    3b84:	e40fc0ef          	jal	1c4 <uart_send>
    3b88:	0154c703          	lbu	a4,21(s1)
    3b8c:	02b4ca03          	lbu	s4,43(s1)
    3b90:	00100693          	li	a3,1
    3b94:	00e12423          	sw	a4,8(sp)
    3b98:	02a4c783          	lbu	a5,42(s1)
    3b9c:	10da1863          	bne	s4,a3,3cac <main+0xc30>
    3ba0:	02c4c603          	lbu	a2,44(s1)
    3ba4:	00800693          	li	a3,8
    3ba8:	10d61263          	bne	a2,a3,3cac <main+0xc30>
    3bac:	02d4c683          	lbu	a3,45(s1)
    3bb0:	00d7e7b3          	or	a5,a5,a3
    3bb4:	0e079c63          	bnez	a5,3cac <main+0xc30>
    3bb8:	00400613          	li	a2,4
    3bbc:	00098593          	mv	a1,s3
    3bc0:	04248513          	addi	a0,s1,66
    3bc4:	8b1fc0ef          	jal	474 <memcmp>
    3bc8:	0e051263          	bnez	a0,3cac <main+0xc30>
    3bcc:	0304c783          	lbu	a5,48(s1)
    3bd0:	0c079e63          	bnez	a5,3cac <main+0xc30>
    3bd4:	0314c783          	lbu	a5,49(s1)
    3bd8:	00812703          	lw	a4,8(sp)
    3bdc:	0d479863          	bne	a5,s4,3cac <main+0xc30>
    3be0:	60f48fa3          	sb	a5,1567(s1)
    3be4:	00600613          	li	a2,6
    3be8:	02a00793          	li	a5,42
    3bec:	83218593          	addi	a1,gp,-1998 # 10000032 <eth_packet_rx+0x1e>
    3bf0:	62448513          	addi	a0,s1,1572
    3bf4:	60e48e23          	sb	a4,1564(s1)
    3bf8:	62f4a023          	sw	a5,1568(s1)
    3bfc:	b09fe0ef          	jal	2704 <memcpy>
    3c00:	00848593          	addi	a1,s1,8
    3c04:	00600613          	li	a2,6
    3c08:	62a48513          	addi	a0,s1,1578
    3c0c:	af9fe0ef          	jal	2704 <memcpy>
    3c10:	010007b7          	lui	a5,0x1000
    3c14:	60878793          	addi	a5,a5,1544 # 1000608 <_idata_start+0xff9c3c>
    3c18:	62f4a823          	sw	a5,1584(s1)
    3c1c:	040607b7          	lui	a5,0x4060
    3c20:	00878793          	addi	a5,a5,8 # 4060008 <_idata_start+0x405963c>
    3c24:	62f4aa23          	sw	a5,1588(s1)
    3c28:	20000793          	li	a5,512
    3c2c:	62f49c23          	sh	a5,1592(s1)
    3c30:	80818593          	addi	a1,gp,-2040 # 10000008 <net_config+0x8>
    3c34:	00600613          	li	a2,6
    3c38:	63a48513          	addi	a0,s1,1594
    3c3c:	ac9fe0ef          	jal	2704 <memcpy>
    3c40:	00400613          	li	a2,4
    3c44:	00098593          	mv	a1,s3
    3c48:	64048513          	addi	a0,s1,1600
    3c4c:	ab9fe0ef          	jal	2704 <memcpy>
    3c50:	00600613          	li	a2,6
    3c54:	83218593          	addi	a1,gp,-1998 # 10000032 <eth_packet_rx+0x1e>
    3c58:	64448513          	addi	a0,s1,1604
    3c5c:	aa9fe0ef          	jal	2704 <memcpy>
    3c60:	03848593          	addi	a1,s1,56
    3c64:	00400613          	li	a2,4
    3c68:	64a48513          	addi	a0,s1,1610
    3c6c:	a99fe0ef          	jal	2704 <memcpy>
    3c70:	00412583          	lw	a1,4(sp)
    3c74:	00040513          	mv	a0,s0
    3c78:	cb8fe0ef          	jal	2130 <eth_send_packet.isra.0>
    3c7c:	02090863          	beqz	s2,3cac <main+0xc30>
    3c80:	000065b7          	lui	a1,0x6
    3c84:	cc458593          	addi	a1,a1,-828 # 5cc4 <__modsi3+0x47c>
    3c88:	00040513          	mv	a0,s0
    3c8c:	d38fc0ef          	jal	1c4 <uart_send>
    3c90:	6204a583          	lw	a1,1568(s1)
    3c94:	00040513          	mv	a0,s0
    3c98:	c70fc0ef          	jal	108 <uart_send_dec>
    3c9c:	000065b7          	lui	a1,0x6
    3ca0:	d6c58593          	addi	a1,a1,-660 # 5d6c <__modsi3+0x524>
    3ca4:	00040513          	mv	a0,s0
    3ca8:	d1cfc0ef          	jal	1c4 <uart_send>
    3cac:	0154c783          	lbu	a5,21(s1)
    3cb0:	07679c63          	bne	a5,s6,3d28 <main+0xcac>
    3cb4:	00200793          	li	a5,2
    3cb8:	00f48a23          	sb	a5,20(s1)
    3cbc:	00012583          	lw	a1,0(sp)
    3cc0:	00040513          	mv	a0,s0
    3cc4:	01648ba3          	sb	s6,23(s1)
    3cc8:	c68fe0ef          	jal	2130 <eth_send_packet.isra.0>
    3ccc:	06810593          	addi	a1,sp,104
    3cd0:	00040513          	mv	a0,s0
    3cd4:	dacfc0ef          	jal	280 <uart_recv>
    3cd8:	00050a13          	mv	s4,a0
    3cdc:	b60504e3          	beqz	a0,3844 <main+0x7c8>
    3ce0:	000065b7          	lui	a1,0x6
    3ce4:	d1458593          	addi	a1,a1,-748 # 5d14 <__modsi3+0x4cc>
    3ce8:	06810513          	addi	a0,sp,104
    3cec:	fdcfc0ef          	jal	4c8 <strcmp>
    3cf0:	04051263          	bnez	a0,3d34 <main+0xcb8>
    3cf4:	00040513          	mv	a0,s0
    3cf8:	93cff0ef          	jal	2e34 <test_chacha20poly1305(csr_vp_t volatile*) [clone .isra.0]>
    3cfc:	c84b8593          	addi	a1,s7,-892
    3d00:	00040513          	mv	a0,s0
    3d04:	cc0fc0ef          	jal	1c4 <uart_send>
    3d08:	b29ff06f          	j	3830 <main+0x7b4>
    3d0c:	fa0900e3          	beqz	s2,3cac <main+0xc30>
    3d10:	000067b7          	lui	a5,0x6
    3d14:	c9878593          	addi	a1,a5,-872 # 5c98 <__modsi3+0x450>
    3d18:	00040513          	mv	a0,s0
    3d1c:	ca8fc0ef          	jal	1c4 <uart_send>
    3d20:	0184a583          	lw	a1,24(s1)
    3d24:	f71ff06f          	j	3c94 <main+0xc18>
    3d28:	fbb792e3          	bne	a5,s11,3ccc <main+0xc50>
    3d2c:	01648a23          	sb	s6,20(s1)
    3d30:	f8dff06f          	j	3cbc <main+0xc40>
    3d34:	000065b7          	lui	a1,0x6
    3d38:	d2c58593          	addi	a1,a1,-724 # 5d2c <__modsi3+0x4e4>
    3d3c:	06810513          	addi	a0,sp,104
    3d40:	f88fc0ef          	jal	4c8 <strcmp>
    3d44:	00050b13          	mv	s6,a0
    3d48:	0c051863          	bnez	a0,3e18 <main+0xd9c>
    3d4c:	04800613          	li	a2,72
    3d50:	14ca8593          	addi	a1,s5,332
    3d54:	12810513          	addi	a0,sp,296
    3d58:	9adfe0ef          	jal	2704 <memcpy>
    3d5c:	00006a37          	lui	s4,0x6
    3d60:	b50a0513          	addi	a0,s4,-1200 # 5b50 <__modsi3+0x308>
    3d64:	f44fc0ef          	jal	4a8 <strlen>
    3d68:	00050613          	mv	a2,a0
    3d6c:	b50a0593          	addi	a1,s4,-1200
    3d70:	10810513          	addi	a0,sp,264
    3d74:	dd4fe0ef          	jal	2348 <hash.constprop.0.isra.0>
    3d78:	12810a13          	addi	s4,sp,296
    3d7c:	000a0713          	mv	a4,s4
    3d80:	00000793          	li	a5,0
    3d84:	02000613          	li	a2,32
    3d88:	10810693          	addi	a3,sp,264
    3d8c:	00f686b3          	add	a3,a3,a5
    3d90:	00474583          	lbu	a1,4(a4) # 1ff0004 <_idata_start+0x1fe9638>
    3d94:	0006c683          	lbu	a3,0(a3)
    3d98:	06d59263          	bne	a1,a3,3dfc <main+0xd80>
    3d9c:	00178793          	addi	a5,a5,1
    3da0:	00170713          	addi	a4,a4,1
    3da4:	fec792e3          	bne	a5,a2,3d88 <main+0xd0c>
    3da8:	00100c13          	li	s8,1
    3dac:	00006cb7          	lui	s9,0x6
    3db0:	d3cc8513          	addi	a0,s9,-708 # 5d3c <__modsi3+0x4f4>
    3db4:	ef4fc0ef          	jal	4a8 <strlen>
    3db8:	00050613          	mv	a2,a0
    3dbc:	d3cc8593          	addi	a1,s9,-708
    3dc0:	10810513          	addi	a0,sp,264
    3dc4:	d84fe0ef          	jal	2348 <hash.constprop.0.isra.0>
    3dc8:	02000793          	li	a5,32
    3dcc:	10810713          	addi	a4,sp,264
    3dd0:	01670733          	add	a4,a4,s6
    3dd4:	00074683          	lbu	a3,0(a4)
    3dd8:	028a4703          	lbu	a4,40(s4)
    3ddc:	00e69a63          	bne	a3,a4,3df0 <main+0xd74>
    3de0:	001b0b13          	addi	s6,s6,1
    3de4:	001a0a13          	addi	s4,s4,1
    3de8:	fefb12e3          	bne	s6,a5,3dcc <main+0xd50>
    3dec:	000c1c63          	bnez	s8,3e04 <main+0xd88>
    3df0:	000065b7          	lui	a1,0x6
    3df4:	d5858593          	addi	a1,a1,-680 # 5d58 <__modsi3+0x510>
    3df8:	0140006f          	j	3e0c <main+0xd90>
    3dfc:	00000c13          	li	s8,0
    3e00:	fadff06f          	j	3dac <main+0xd30>
    3e04:	000065b7          	lui	a1,0x6
    3e08:	d4058593          	addi	a1,a1,-704 # 5d40 <__modsi3+0x4f8>
    3e0c:	00040513          	mv	a0,s0
    3e10:	bb4fc0ef          	jal	1c4 <uart_send>
    3e14:	ee9ff06f          	j	3cfc <main+0xc80>
    3e18:	000065b7          	lui	a1,0x6
    3e1c:	d7058593          	addi	a1,a1,-656 # 5d70 <__modsi3+0x528>
    3e20:	06810513          	addi	a0,sp,104
    3e24:	ea4fc0ef          	jal	4c8 <strcmp>
    3e28:	08051263          	bnez	a0,3eac <main+0xe30>
    3e2c:	08810513          	addi	a0,sp,136
    3e30:	ef1fe0ef          	jal	2d20 <random_32bytes>
    3e34:	0a810513          	addi	a0,sp,168
    3e38:	ee9fe0ef          	jal	2d20 <random_32bytes>
    3e3c:	00007a37          	lui	s4,0x7
    3e40:	9aca0613          	addi	a2,s4,-1620 # 69ac <_9>
    3e44:	08810593          	addi	a1,sp,136
    3e48:	0c810513          	addi	a0,sp,200
    3e4c:	c99fd0ef          	jal	1ae4 <x25519_scalarmult.isra.0>
    3e50:	9aca0613          	addi	a2,s4,-1620
    3e54:	0a810593          	addi	a1,sp,168
    3e58:	0e810513          	addi	a0,sp,232
    3e5c:	c89fd0ef          	jal	1ae4 <x25519_scalarmult.isra.0>
    3e60:	0e810613          	addi	a2,sp,232
    3e64:	08810593          	addi	a1,sp,136
    3e68:	10810513          	addi	a0,sp,264
    3e6c:	c79fd0ef          	jal	1ae4 <x25519_scalarmult.isra.0>
    3e70:	0c810613          	addi	a2,sp,200
    3e74:	0a810593          	addi	a1,sp,168
    3e78:	12810513          	addi	a0,sp,296
    3e7c:	c69fd0ef          	jal	1ae4 <x25519_scalarmult.isra.0>
    3e80:	02000613          	li	a2,32
    3e84:	12810593          	addi	a1,sp,296
    3e88:	10810513          	addi	a0,sp,264
    3e8c:	de8fc0ef          	jal	474 <memcmp>
    3e90:	00051863          	bnez	a0,3ea0 <main+0xe24>
    3e94:	000065b7          	lui	a1,0x6
    3e98:	d8458593          	addi	a1,a1,-636 # 5d84 <__modsi3+0x53c>
    3e9c:	f71ff06f          	j	3e0c <main+0xd90>
    3ea0:	000065b7          	lui	a1,0x6
    3ea4:	dcc58593          	addi	a1,a1,-564 # 5dcc <__modsi3+0x584>
    3ea8:	f65ff06f          	j	3e0c <main+0xd90>
    3eac:	000065b7          	lui	a1,0x6
    3eb0:	e0058593          	addi	a1,a1,-512 # 5e00 <__modsi3+0x5b8>
    3eb4:	06810513          	addi	a0,sp,104
    3eb8:	e10fc0ef          	jal	4c8 <strcmp>
    3ebc:	10051a63          	bnez	a0,3fd0 <main+0xf54>
    3ec0:	00a00a13          	li	s4,10
    3ec4:	00006cb7          	lui	s9,0x6
    3ec8:	00006d37          	lui	s10,0x6
    3ecc:	02000d93          	li	s11,32
    3ed0:	00006b37          	lui	s6,0x6
    3ed4:	00006c37          	lui	s8,0x6
    3ed8:	e0cc8593          	addi	a1,s9,-500 # 5e0c <__modsi3+0x5c4>
    3edc:	00040513          	mv	a0,s0
    3ee0:	ae4fc0ef          	jal	1c4 <uart_send>
    3ee4:	10810513          	addi	a0,sp,264
    3ee8:	e39fe0ef          	jal	2d20 <random_32bytes>
    3eec:	01100613          	li	a2,17
    3ef0:	878d0593          	addi	a1,s10,-1928 # 5878 <__modsi3+0x30>
    3ef4:	12810513          	addi	a0,sp,296
    3ef8:	80dfe0ef          	jal	2704 <memcpy>
    3efc:	00000713          	li	a4,0
    3f00:	10810793          	addi	a5,sp,264
    3f04:	00e787b3          	add	a5,a5,a4
    3f08:	0007c783          	lbu	a5,0(a5)
    3f0c:	00e12623          	sw	a4,12(sp)
    3f10:	01010713          	addi	a4,sp,16
    3f14:	0047d693          	srli	a3,a5,0x4
    3f18:	00f12423          	sw	a5,8(sp)
    3f1c:	16068793          	addi	a5,a3,352
    3f20:	00e786b3          	add	a3,a5,a4
    3f24:	fb86c583          	lbu	a1,-72(a3)
    3f28:	00040513          	mv	a0,s0
    3f2c:	948fc0ef          	jal	74 <uart_send_char>
    3f30:	00812783          	lw	a5,8(sp)
    3f34:	01010713          	addi	a4,sp,16
    3f38:	00040513          	mv	a0,s0
    3f3c:	00f7f793          	andi	a5,a5,15
    3f40:	16078793          	addi	a5,a5,352
    3f44:	00e787b3          	add	a5,a5,a4
    3f48:	fb87c583          	lbu	a1,-72(a5)
    3f4c:	928fc0ef          	jal	74 <uart_send_char>
    3f50:	00c12703          	lw	a4,12(sp)
    3f54:	00170713          	addi	a4,a4,1
    3f58:	fbb714e3          	bne	a4,s11,3f00 <main+0xe84>
    3f5c:	d6cb0593          	addi	a1,s6,-660 # 5d6c <__modsi3+0x524>
    3f60:	00040513          	mv	a0,s0
    3f64:	a60fc0ef          	jal	1c4 <uart_send>
    3f68:	e2cc0593          	addi	a1,s8,-468 # 5e2c <__modsi3+0x5e4>
    3f6c:	00040513          	mv	a0,s0
    3f70:	a54fc0ef          	jal	1c4 <uart_send>
    3f74:	12810513          	addi	a0,sp,296
    3f78:	da9fe0ef          	jal	2d20 <random_32bytes>
    3f7c:	00400613          	li	a2,4
    3f80:	12810593          	addi	a1,sp,296
    3f84:	0e810513          	addi	a0,sp,232
    3f88:	f7cfe0ef          	jal	2704 <memcpy>
    3f8c:	02000613          	li	a2,32
    3f90:	00000593          	li	a1,0
    3f94:	12810513          	addi	a0,sp,296
    3f98:	d88fe0ef          	jal	2520 <memset>
    3f9c:	0e812503          	lw	a0,232(sp)
    3fa0:	3df00593          	li	a1,991
    3fa4:	fffa0a13          	addi	s4,s4,-1
    3fa8:	06d010ef          	jal	5814 <__umodsi3>
    3fac:	00a50593          	addi	a1,a0,10
    3fb0:	00040513          	mv	a0,s0
    3fb4:	954fc0ef          	jal	108 <uart_send_dec>
    3fb8:	d6cb0593          	addi	a1,s6,-660
    3fbc:	00040513          	mv	a0,s0
    3fc0:	0ffa7a13          	zext.b	s4,s4
    3fc4:	a00fc0ef          	jal	1c4 <uart_send>
    3fc8:	f00a18e3          	bnez	s4,3ed8 <main+0xe5c>
    3fcc:	d31ff06f          	j	3cfc <main+0xc80>
    3fd0:	000065b7          	lui	a1,0x6
    3fd4:	e5c58593          	addi	a1,a1,-420 # 5e5c <__modsi3+0x614>
    3fd8:	06810513          	addi	a0,sp,104
    3fdc:	cecfc0ef          	jal	4c8 <strcmp>
    3fe0:	02050463          	beqz	a0,4008 <main+0xf8c>
    3fe4:	000065b7          	lui	a1,0x6
    3fe8:	e8058593          	addi	a1,a1,-384 # 5e80 <__modsi3+0x638>
    3fec:	06810513          	addi	a0,sp,104
    3ff0:	cd8fc0ef          	jal	4c8 <strcmp>
    3ff4:	06051263          	bnez	a0,4058 <main+0xfdc>
    3ff8:	00040513          	mv	a0,s0
    3ffc:	871fd0ef          	jal	186c <show_network(csr_vp_t volatile*, net_config_t*) [clone .constprop.0]>
    4000:	cfdff06f          	j	3cfc <main+0xc80>
    4004:	01c0006f          	j	4020 <main+0xfa4>
    4008:	00014b37          	lui	s6,0x14
    400c:	00a00a13          	li	s4,10
    4010:	87fb0b13          	addi	s6,s6,-1921 # 1387f <_idata_start+0xceb3>
    4014:	00006c37          	lui	s8,0x6
    4018:	3e800793          	li	a5,1000
    401c:	c00026f3          	rdcycle	a3
    4020:	c0002773          	rdcycle	a4
    4024:	40d70733          	sub	a4,a4,a3
    4028:	fceb7ee3          	bgeu	s6,a4,4004 <main+0xf88>
    402c:	fff78793          	addi	a5,a5,-1
    4030:	fe0796e3          	bnez	a5,401c <main+0xfa0>
    4034:	fffa0a13          	addi	s4,s4,-1
    4038:	e68c0593          	addi	a1,s8,-408 # 5e68 <__modsi3+0x620>
    403c:	00040513          	mv	a0,s0
    4040:	0ffa7a13          	zext.b	s4,s4
    4044:	980fc0ef          	jal	1c4 <uart_send>
    4048:	fc0a18e3          	bnez	s4,4018 <main+0xf9c>
    404c:	000065b7          	lui	a1,0x6
    4050:	e6c58593          	addi	a1,a1,-404 # 5e6c <__modsi3+0x624>
    4054:	db9ff06f          	j	3e0c <main+0xd90>
    4058:	000065b7          	lui	a1,0x6
    405c:	e9058593          	addi	a1,a1,-368 # 5e90 <__modsi3+0x648>
    4060:	06810513          	addi	a0,sp,104
    4064:	c64fc0ef          	jal	4c8 <strcmp>
    4068:	18051a63          	bnez	a0,41fc <main+0x1180>
    406c:	000065b7          	lui	a1,0x6
    4070:	ea058593          	addi	a1,a1,-352 # 5ea0 <__modsi3+0x658>
    4074:	00040513          	mv	a0,s0
    4078:	94cfc0ef          	jal	1c4 <uart_send>
    407c:	000065b7          	lui	a1,0x6
    4080:	ec458593          	addi	a1,a1,-316 # 5ec4 <__modsi3+0x67c>
    4084:	00040513          	mv	a0,s0
    4088:	93cfc0ef          	jal	1c4 <uart_send>
    408c:	00098593          	mv	a1,s3
    4090:	00040513          	mv	a0,s0
    4094:	974fc0ef          	jal	208 <uart_send_ip>
    4098:	00006a37          	lui	s4,0x6
    409c:	43ca0593          	addi	a1,s4,1084 # 643c <__modsi3+0xbf4>
    40a0:	00040513          	mv	a0,s0
    40a4:	920fc0ef          	jal	1c4 <uart_send>
    40a8:	12810593          	addi	a1,sp,296
    40ac:	00040513          	mv	a0,s0
    40b0:	9d0fc0ef          	jal	280 <uart_recv>
    40b4:	fe050ae3          	beqz	a0,40a8 <main+0x102c>
    40b8:	00098593          	mv	a1,s3
    40bc:	12810513          	addi	a0,sp,296
    40c0:	fcdfd0ef          	jal	208c <net_str_parse_ip.isra.0>
    40c4:	000065b7          	lui	a1,0x6
    40c8:	ed458593          	addi	a1,a1,-300 # 5ed4 <__modsi3+0x68c>
    40cc:	00040513          	mv	a0,s0
    40d0:	8f4fc0ef          	jal	1c4 <uart_send>
    40d4:	00448593          	addi	a1,s1,4
    40d8:	00040513          	mv	a0,s0
    40dc:	92cfc0ef          	jal	208 <uart_send_ip>
    40e0:	43ca0593          	addi	a1,s4,1084
    40e4:	00040513          	mv	a0,s0
    40e8:	8dcfc0ef          	jal	1c4 <uart_send>
    40ec:	12810593          	addi	a1,sp,296
    40f0:	00040513          	mv	a0,s0
    40f4:	98cfc0ef          	jal	280 <uart_recv>
    40f8:	fe050ae3          	beqz	a0,40ec <main+0x1070>
    40fc:	80418593          	addi	a1,gp,-2044 # 10000004 <net_config+0x4>
    4100:	12810513          	addi	a0,sp,296
    4104:	f89fd0ef          	jal	208c <net_str_parse_ip.isra.0>
    4108:	000065b7          	lui	a1,0x6
    410c:	ee458593          	addi	a1,a1,-284 # 5ee4 <__modsi3+0x69c>
    4110:	00040513          	mv	a0,s0
    4114:	8b0fc0ef          	jal	1c4 <uart_send>
    4118:	12810593          	addi	a1,sp,296
    411c:	00040513          	mv	a0,s0
    4120:	960fc0ef          	jal	280 <uart_recv>
    4124:	fe050ae3          	beqz	a0,4118 <main+0x109c>
    4128:	12814783          	lbu	a5,296(sp)
    412c:	05900713          	li	a4,89
    4130:	0df7f793          	andi	a5,a5,223
    4134:	00e79a63          	bne	a5,a4,4148 <main+0x10cc>
    4138:	10810513          	addi	a0,sp,264
    413c:	be5fe0ef          	jal	2d20 <random_32bytes>
    4140:	10815783          	lhu	a5,264(sp)
    4144:	00f49623          	sh	a5,12(s1)
    4148:	000065b7          	lui	a1,0x6
    414c:	f0c58593          	addi	a1,a1,-244 # 5f0c <__modsi3+0x6c4>
    4150:	00040513          	mv	a0,s0
    4154:	870fc0ef          	jal	1c4 <uart_send>
    4158:	00e48593          	addi	a1,s1,14
    415c:	00040513          	mv	a0,s0
    4160:	8a8fc0ef          	jal	208 <uart_send_ip>
    4164:	43ca0593          	addi	a1,s4,1084
    4168:	00040513          	mv	a0,s0
    416c:	858fc0ef          	jal	1c4 <uart_send>
    4170:	12810593          	addi	a1,sp,296
    4174:	00040513          	mv	a0,s0
    4178:	908fc0ef          	jal	280 <uart_recv>
    417c:	fe050ae3          	beqz	a0,4170 <main+0x10f4>
    4180:	80e18593          	addi	a1,gp,-2034 # 1000000e <net_config+0xe>
    4184:	12810513          	addi	a0,sp,296
    4188:	f05fd0ef          	jal	208c <net_str_parse_ip.isra.0>
    418c:	000065b7          	lui	a1,0x6
    4190:	f2058593          	addi	a1,a1,-224 # 5f20 <__modsi3+0x6d8>
    4194:	00040513          	mv	a0,s0
    4198:	82cfc0ef          	jal	1c4 <uart_send>
    419c:	0124c583          	lbu	a1,18(s1)
    41a0:	00040513          	mv	a0,s0
    41a4:	f65fb0ef          	jal	108 <uart_send_dec>
    41a8:	43ca0593          	addi	a1,s4,1084
    41ac:	00040513          	mv	a0,s0
    41b0:	814fc0ef          	jal	1c4 <uart_send>
    41b4:	12810593          	addi	a1,sp,296
    41b8:	00040513          	mv	a0,s0
    41bc:	8c4fc0ef          	jal	280 <uart_recv>
    41c0:	fe050ae3          	beqz	a0,41b4 <main+0x1138>
    41c4:	00700693          	li	a3,7
    41c8:	00000613          	li	a2,0
    41cc:	10810593          	addi	a1,sp,264
    41d0:	12810513          	addi	a0,sp,296
    41d4:	10012423          	sw	zero,264(sp)
    41d8:	b24fc0ef          	jal	4fc <str_parse_uint32>
    41dc:	00050663          	beqz	a0,41e8 <main+0x116c>
    41e0:	10812783          	lw	a5,264(sp)
    41e4:	00f48923          	sb	a5,18(s1)
    41e8:	000065b7          	lui	a1,0x6
    41ec:	f3c58593          	addi	a1,a1,-196 # 5f3c <__modsi3+0x6f4>
    41f0:	00040513          	mv	a0,s0
    41f4:	fd1fb0ef          	jal	1c4 <uart_send>
    41f8:	e01ff06f          	j	3ff8 <main+0xf7c>
    41fc:	000065b7          	lui	a1,0x6
    4200:	f6058593          	addi	a1,a1,-160 # 5f60 <__modsi3+0x718>
    4204:	06810513          	addi	a0,sp,104
    4208:	ac0fc0ef          	jal	4c8 <strcmp>
    420c:	00050b13          	mv	s6,a0
    4210:	06051c63          	bnez	a0,4288 <main+0x120c>
    4214:	02442783          	lw	a5,36(s0)
    4218:	0007a783          	lw	a5,0(a5)
    421c:	0007a703          	lw	a4,0(a5)
    4220:	00072783          	lw	a5,0(a4)
    4224:	0027e793          	ori	a5,a5,2
    4228:	00f72023          	sw	a5,0(a4)
    422c:	02442783          	lw	a5,36(s0)
    4230:	0007a783          	lw	a5,0(a5)
    4234:	0007a783          	lw	a5,0(a5)
    4238:	0007a783          	lw	a5,0(a5)
    423c:	0017f793          	andi	a5,a5,1
    4240:	fe0786e3          	beqz	a5,422c <main+0x11b0>
    4244:	000065b7          	lui	a1,0x6
    4248:	f7058593          	addi	a1,a1,-144 # 5f70 <__modsi3+0x728>
    424c:	00040513          	mv	a0,s0
    4250:	f75fb0ef          	jal	1c4 <uart_send>
    4254:	04000a13          	li	s4,64
    4258:	000b0593          	mv	a1,s6
    425c:	00040513          	mv	a0,s0
    4260:	001b0b13          	addi	s6,s6,1
    4264:	e85fc0ef          	jal	10e8 <show_routes_entry(csr_vp_t volatile*, int)>
    4268:	ff4b18e3          	bne	s6,s4,4258 <main+0x11dc>
    426c:	02442783          	lw	a5,36(s0)
    4270:	0007a783          	lw	a5,0(a5)
    4274:	0007a703          	lw	a4,0(a5)
    4278:	00072783          	lw	a5,0(a4)
    427c:	ffd7f793          	andi	a5,a5,-3
    4280:	00f72023          	sw	a5,0(a4)
    4284:	a79ff06f          	j	3cfc <main+0xc80>
    4288:	000065b7          	lui	a1,0x6
    428c:	f8458593          	addi	a1,a1,-124 # 5f84 <__modsi3+0x73c>
    4290:	06810513          	addi	a0,sp,104
    4294:	a34fc0ef          	jal	4c8 <strcmp>
    4298:	34051863          	bnez	a0,45e8 <main+0x156c>
    429c:	02442783          	lw	a5,36(s0)
    42a0:	0007a783          	lw	a5,0(a5)
    42a4:	0007a703          	lw	a4,0(a5)
    42a8:	00072783          	lw	a5,0(a4)
    42ac:	0027e793          	ori	a5,a5,2
    42b0:	00f72023          	sw	a5,0(a4)
    42b4:	02442783          	lw	a5,36(s0)
    42b8:	0007a783          	lw	a5,0(a5)
    42bc:	0007a783          	lw	a5,0(a5)
    42c0:	0007a783          	lw	a5,0(a5)
    42c4:	0017f793          	andi	a5,a5,1
    42c8:	fe0786e3          	beqz	a5,42b4 <main+0x1238>
    42cc:	000065b7          	lui	a1,0x6
    42d0:	f9458593          	addi	a1,a1,-108 # 5f94 <__modsi3+0x74c>
    42d4:	00040513          	mv	a0,s0
    42d8:	eedfb0ef          	jal	1c4 <uart_send>
    42dc:	000065b7          	lui	a1,0x6
    42e0:	fb858593          	addi	a1,a1,-72 # 5fb8 <__modsi3+0x770>
    42e4:	00040513          	mv	a0,s0
    42e8:	eddfb0ef          	jal	1c4 <uart_send>
    42ec:	12810593          	addi	a1,sp,296
    42f0:	00040513          	mv	a0,s0
    42f4:	f8dfb0ef          	jal	280 <uart_recv>
    42f8:	fe050ae3          	beqz	a0,42ec <main+0x1270>
    42fc:	03f00693          	li	a3,63
    4300:	00000613          	li	a2,0
    4304:	08810593          	addi	a1,sp,136
    4308:	12810513          	addi	a0,sp,296
    430c:	08012423          	sw	zero,136(sp)
    4310:	9ecfc0ef          	jal	4fc <str_parse_uint32>
    4314:	000065b7          	lui	a1,0x6
    4318:	fd458593          	addi	a1,a1,-44 # 5fd4 <__modsi3+0x78c>
    431c:	00040513          	mv	a0,s0
    4320:	ea5fb0ef          	jal	1c4 <uart_send>
    4324:	08812c03          	lw	s8,136(sp)
    4328:	02842783          	lw	a5,40(s0)
    432c:	0a810593          	addi	a1,sp,168
    4330:	002c1a13          	slli	s4,s8,0x2
    4334:	014787b3          	add	a5,a5,s4
    4338:	0007a783          	lw	a5,0(a5)
    433c:	00040513          	mv	a0,s0
    4340:	00006b37          	lui	s6,0x6
    4344:	0007a783          	lw	a5,0(a5)
    4348:	0007a683          	lw	a3,0(a5)
    434c:	0006d783          	lhu	a5,0(a3)
    4350:	00879713          	slli	a4,a5,0x8
    4354:	0087d793          	srli	a5,a5,0x8
    4358:	00f76733          	or	a4,a4,a5
    435c:	0006a783          	lw	a5,0(a3)
    4360:	0ae11523          	sh	a4,170(sp)
    4364:	0187d693          	srli	a3,a5,0x18
    4368:	0107d793          	srli	a5,a5,0x10
    436c:	0ad10423          	sb	a3,168(sp)
    4370:	0af104a3          	sb	a5,169(sp)
    4374:	e95fb0ef          	jal	208 <uart_send_ip>
    4378:	43cb0593          	addi	a1,s6,1084 # 643c <__modsi3+0xbf4>
    437c:	00040513          	mv	a0,s0
    4380:	e45fb0ef          	jal	1c4 <uart_send>
    4384:	12810593          	addi	a1,sp,296
    4388:	00040513          	mv	a0,s0
    438c:	ef5fb0ef          	jal	280 <uart_recv>
    4390:	fe050ae3          	beqz	a0,4384 <main+0x1308>
    4394:	0a810593          	addi	a1,sp,168
    4398:	12810513          	addi	a0,sp,296
    439c:	cf1fd0ef          	jal	208c <net_str_parse_ip.isra.0>
    43a0:	000065b7          	lui	a1,0x6
    43a4:	ed458593          	addi	a1,a1,-300 # 5ed4 <__modsi3+0x68c>
    43a8:	00040513          	mv	a0,s0
    43ac:	e19fb0ef          	jal	1c4 <uart_send>
    43b0:	02842783          	lw	a5,40(s0)
    43b4:	0c810593          	addi	a1,sp,200
    43b8:	00040513          	mv	a0,s0
    43bc:	014787b3          	add	a5,a5,s4
    43c0:	0007a783          	lw	a5,0(a5)
    43c4:	0047a783          	lw	a5,4(a5)
    43c8:	0007a683          	lw	a3,0(a5)
    43cc:	0006d783          	lhu	a5,0(a3)
    43d0:	00879713          	slli	a4,a5,0x8
    43d4:	0087d793          	srli	a5,a5,0x8
    43d8:	00f76733          	or	a4,a4,a5
    43dc:	0006a783          	lw	a5,0(a3)
    43e0:	0ce11523          	sh	a4,202(sp)
    43e4:	0187d693          	srli	a3,a5,0x18
    43e8:	0107d793          	srli	a5,a5,0x10
    43ec:	0cd10423          	sb	a3,200(sp)
    43f0:	0cf104a3          	sb	a5,201(sp)
    43f4:	e15fb0ef          	jal	208 <uart_send_ip>
    43f8:	43cb0593          	addi	a1,s6,1084
    43fc:	00040513          	mv	a0,s0
    4400:	dc5fb0ef          	jal	1c4 <uart_send>
    4404:	12810593          	addi	a1,sp,296
    4408:	00040513          	mv	a0,s0
    440c:	e75fb0ef          	jal	280 <uart_recv>
    4410:	fe050ae3          	beqz	a0,4404 <main+0x1388>
    4414:	0c810593          	addi	a1,sp,200
    4418:	12810513          	addi	a0,sp,296
    441c:	c71fd0ef          	jal	208c <net_str_parse_ip.isra.0>
    4420:	000065b7          	lui	a1,0x6
    4424:	ff058593          	addi	a1,a1,-16 # 5ff0 <__modsi3+0x7a8>
    4428:	00040513          	mv	a0,s0
    442c:	d99fb0ef          	jal	1c4 <uart_send>
    4430:	02842783          	lw	a5,40(s0)
    4434:	00040513          	mv	a0,s0
    4438:	014787b3          	add	a5,a5,s4
    443c:	0007a783          	lw	a5,0(a5)
    4440:	0087a783          	lw	a5,8(a5)
    4444:	0007a783          	lw	a5,0(a5)
    4448:	0007a583          	lw	a1,0(a5)
    444c:	03f5f593          	andi	a1,a1,63
    4450:	0eb12423          	sw	a1,232(sp)
    4454:	cb5fb0ef          	jal	108 <uart_send_dec>
    4458:	43cb0593          	addi	a1,s6,1084
    445c:	00040513          	mv	a0,s0
    4460:	d65fb0ef          	jal	1c4 <uart_send>
    4464:	12810593          	addi	a1,sp,296
    4468:	00040513          	mv	a0,s0
    446c:	e15fb0ef          	jal	280 <uart_recv>
    4470:	fe050ae3          	beqz	a0,4464 <main+0x13e8>
    4474:	03f00693          	li	a3,63
    4478:	00000613          	li	a2,0
    447c:	0e810593          	addi	a1,sp,232
    4480:	12810513          	addi	a0,sp,296
    4484:	878fc0ef          	jal	4fc <str_parse_uint32>
    4488:	000065b7          	lui	a1,0x6
    448c:	00858593          	addi	a1,a1,8 # 6008 <__modsi3+0x7c0>
    4490:	00040513          	mv	a0,s0
    4494:	d31fb0ef          	jal	1c4 <uart_send>
    4498:	02842783          	lw	a5,40(s0)
    449c:	00040513          	mv	a0,s0
    44a0:	014787b3          	add	a5,a5,s4
    44a4:	0007a783          	lw	a5,0(a5)
    44a8:	00c7a783          	lw	a5,12(a5)
    44ac:	0007a783          	lw	a5,0(a5)
    44b0:	0007a583          	lw	a1,0(a5)
    44b4:	0075f593          	andi	a1,a1,7
    44b8:	10b12423          	sw	a1,264(sp)
    44bc:	c4dfb0ef          	jal	108 <uart_send_dec>
    44c0:	43cb0593          	addi	a1,s6,1084
    44c4:	00040513          	mv	a0,s0
    44c8:	cfdfb0ef          	jal	1c4 <uart_send>
    44cc:	12810593          	addi	a1,sp,296
    44d0:	00040513          	mv	a0,s0
    44d4:	dadfb0ef          	jal	280 <uart_recv>
    44d8:	fe050ae3          	beqz	a0,44cc <main+0x1450>
    44dc:	10810593          	addi	a1,sp,264
    44e0:	00700693          	li	a3,7
    44e4:	00000613          	li	a2,0
    44e8:	12810513          	addi	a0,sp,296
    44ec:	810fc0ef          	jal	4fc <str_parse_uint32>
    44f0:	0c814783          	lbu	a5,200(sp)
    44f4:	0c914703          	lbu	a4,201(sp)
    44f8:	000065b7          	lui	a1,0x6
    44fc:	01879793          	slli	a5,a5,0x18
    4500:	01071713          	slli	a4,a4,0x10
    4504:	00e7e7b3          	or	a5,a5,a4
    4508:	0cb14703          	lbu	a4,203(sp)
    450c:	00040513          	mv	a0,s0
    4510:	02858593          	addi	a1,a1,40 # 6028 <__modsi3+0x7e0>
    4514:	00e7e7b3          	or	a5,a5,a4
    4518:	0ca14703          	lbu	a4,202(sp)
    451c:	00871713          	slli	a4,a4,0x8
    4520:	00e7e6b3          	or	a3,a5,a4
    4524:	02842703          	lw	a4,40(s0)
    4528:	01470733          	add	a4,a4,s4
    452c:	00072783          	lw	a5,0(a4)
    4530:	0a914703          	lbu	a4,169(sp)
    4534:	0007a783          	lw	a5,0(a5)
    4538:	01071713          	slli	a4,a4,0x10
    453c:	0007a603          	lw	a2,0(a5)
    4540:	0a814783          	lbu	a5,168(sp)
    4544:	01879793          	slli	a5,a5,0x18
    4548:	00e7e7b3          	or	a5,a5,a4
    454c:	0ab14703          	lbu	a4,171(sp)
    4550:	00e7e7b3          	or	a5,a5,a4
    4554:	0aa14703          	lbu	a4,170(sp)
    4558:	00871713          	slli	a4,a4,0x8
    455c:	00e7e7b3          	or	a5,a5,a4
    4560:	02842703          	lw	a4,40(s0)
    4564:	00f62023          	sw	a5,0(a2)
    4568:	01470733          	add	a4,a4,s4
    456c:	00072783          	lw	a5,0(a4)
    4570:	0e812703          	lw	a4,232(sp)
    4574:	0047a783          	lw	a5,4(a5)
    4578:	03f77713          	andi	a4,a4,63
    457c:	0007a783          	lw	a5,0(a5)
    4580:	00d7a023          	sw	a3,0(a5)
    4584:	02842783          	lw	a5,40(s0)
    4588:	014787b3          	add	a5,a5,s4
    458c:	0007a783          	lw	a5,0(a5)
    4590:	0087a783          	lw	a5,8(a5)
    4594:	0007a683          	lw	a3,0(a5)
    4598:	0006a783          	lw	a5,0(a3)
    459c:	fc07f793          	andi	a5,a5,-64
    45a0:	00e7e7b3          	or	a5,a5,a4
    45a4:	00f6a023          	sw	a5,0(a3)
    45a8:	02842783          	lw	a5,40(s0)
    45ac:	10812703          	lw	a4,264(sp)
    45b0:	014787b3          	add	a5,a5,s4
    45b4:	0007a783          	lw	a5,0(a5)
    45b8:	00777713          	andi	a4,a4,7
    45bc:	00c7a783          	lw	a5,12(a5)
    45c0:	0007a683          	lw	a3,0(a5)
    45c4:	0006a783          	lw	a5,0(a3)
    45c8:	ff87f793          	andi	a5,a5,-8
    45cc:	00e7e7b3          	or	a5,a5,a4
    45d0:	00f6a023          	sw	a5,0(a3)
    45d4:	bf1fb0ef          	jal	1c4 <uart_send>
    45d8:	000c0593          	mv	a1,s8
    45dc:	00040513          	mv	a0,s0
    45e0:	b09fc0ef          	jal	10e8 <show_routes_entry(csr_vp_t volatile*, int)>
    45e4:	c89ff06f          	j	426c <main+0x11f0>
    45e8:	000065b7          	lui	a1,0x6
    45ec:	04858593          	addi	a1,a1,72 # 6048 <__modsi3+0x800>
    45f0:	06810513          	addi	a0,sp,104
    45f4:	ed5fb0ef          	jal	4c8 <strcmp>
    45f8:	06051263          	bnez	a0,465c <main+0x15e0>
    45fc:	02442783          	lw	a5,36(s0)
    4600:	0007a783          	lw	a5,0(a5)
    4604:	0007a703          	lw	a4,0(a5)
    4608:	00072783          	lw	a5,0(a4)
    460c:	0027e793          	ori	a5,a5,2
    4610:	00f72023          	sw	a5,0(a4)
    4614:	02442783          	lw	a5,36(s0)
    4618:	0007a783          	lw	a5,0(a5)
    461c:	0007a783          	lw	a5,0(a5)
    4620:	0007a783          	lw	a5,0(a5)
    4624:	0017f793          	andi	a5,a5,1
    4628:	fe0786e3          	beqz	a5,4614 <main+0x1598>
    462c:	000065b7          	lui	a1,0x6
    4630:	05c58593          	addi	a1,a1,92 # 605c <__modsi3+0x814>
    4634:	00040513          	mv	a0,s0
    4638:	b8dfb0ef          	jal	1c4 <uart_send>
    463c:	00100a13          	li	s4,1
    4640:	04000b13          	li	s6,64
    4644:	000a0593          	mv	a1,s4
    4648:	00040513          	mv	a0,s0
    464c:	001a0a13          	addi	s4,s4,1
    4650:	c91fc0ef          	jal	12e0 <show_cryptokeys_entry(csr_vp_t volatile*, int)>
    4654:	ff6a18e3          	bne	s4,s6,4644 <main+0x15c8>
    4658:	c15ff06f          	j	426c <main+0x11f0>
    465c:	000065b7          	lui	a1,0x6
    4660:	07058593          	addi	a1,a1,112 # 6070 <__modsi3+0x828>
    4664:	06810513          	addi	a0,sp,104
    4668:	e61fb0ef          	jal	4c8 <strcmp>
    466c:	00050463          	beqz	a0,4674 <main+0x15f8>
    4670:	6e10006f          	j	5550 <main+0x24d4>
    4674:	02442783          	lw	a5,36(s0)
    4678:	0007a783          	lw	a5,0(a5)
    467c:	0007a703          	lw	a4,0(a5)
    4680:	00072783          	lw	a5,0(a4)
    4684:	0027e793          	ori	a5,a5,2
    4688:	00f72023          	sw	a5,0(a4)
    468c:	02442783          	lw	a5,36(s0)
    4690:	0007a783          	lw	a5,0(a5)
    4694:	0007a783          	lw	a5,0(a5)
    4698:	0007a783          	lw	a5,0(a5)
    469c:	0017f793          	andi	a5,a5,1
    46a0:	fe0786e3          	beqz	a5,468c <main+0x1610>
    46a4:	000065b7          	lui	a1,0x6
    46a8:	08458593          	addi	a1,a1,132 # 6084 <__modsi3+0x83c>
    46ac:	00040513          	mv	a0,s0
    46b0:	b15fb0ef          	jal	1c4 <uart_send>
    46b4:	000065b7          	lui	a1,0x6
    46b8:	0a858593          	addi	a1,a1,168 # 60a8 <__modsi3+0x860>
    46bc:	00040513          	mv	a0,s0
    46c0:	b05fb0ef          	jal	1c4 <uart_send>
    46c4:	12810593          	addi	a1,sp,296
    46c8:	00040513          	mv	a0,s0
    46cc:	bb5fb0ef          	jal	280 <uart_recv>
    46d0:	fe050ae3          	beqz	a0,46c4 <main+0x1648>
    46d4:	00100793          	li	a5,1
    46d8:	03f00693          	li	a3,63
    46dc:	00100613          	li	a2,1
    46e0:	01010593          	addi	a1,sp,16
    46e4:	12810513          	addi	a0,sp,296
    46e8:	00f12823          	sw	a5,16(sp)
    46ec:	e11fb0ef          	jal	4fc <str_parse_uint32>
    46f0:	000065b7          	lui	a1,0x6
    46f4:	0c458593          	addi	a1,a1,196 # 60c4 <__modsi3+0x87c>
    46f8:	00040513          	mv	a0,s0
    46fc:	ac9fb0ef          	jal	1c4 <uart_send>
    4700:	01012c83          	lw	s9,16(sp)
    4704:	02c42783          	lw	a5,44(s0)
    4708:	00400613          	li	a2,4
    470c:	002c9a13          	slli	s4,s9,0x2
    4710:	014787b3          	add	a5,a5,s4
    4714:	0007a783          	lw	a5,0(a5)
    4718:	00040513          	mv	a0,s0
    471c:	00006d37          	lui	s10,0x6
    4720:	0007a783          	lw	a5,0(a5)
    4724:	0007a783          	lw	a5,0(a5)
    4728:	0007d583          	lhu	a1,0(a5)
    472c:	00b12a23          	sw	a1,20(sp)
    4730:	96dfb0ef          	jal	9c <uart_send_hex>
    4734:	02c42783          	lw	a5,44(s0)
    4738:	00040513          	mv	a0,s0
    473c:	00800613          	li	a2,8
    4740:	014787b3          	add	a5,a5,s4
    4744:	0007a783          	lw	a5,0(a5)
    4748:	0047a783          	lw	a5,4(a5)
    474c:	0007a783          	lw	a5,0(a5)
    4750:	0007a583          	lw	a1,0(a5)
    4754:	00b12c23          	sw	a1,24(sp)
    4758:	945fb0ef          	jal	9c <uart_send_hex>
    475c:	43cd0593          	addi	a1,s10,1084 # 643c <__modsi3+0xbf4>
    4760:	00040513          	mv	a0,s0
    4764:	a61fb0ef          	jal	1c4 <uart_send>
    4768:	12810593          	addi	a1,sp,296
    476c:	00040513          	mv	a0,s0
    4770:	b11fb0ef          	jal	280 <uart_recv>
    4774:	fe050ae3          	beqz	a0,4768 <main+0x16ec>
    4778:	12810513          	addi	a0,sp,296
    477c:	d2dfb0ef          	jal	4a8 <strlen>
    4780:	00d00793          	li	a5,13
    4784:	02f51863          	bne	a0,a5,47b4 <main+0x1738>
    4788:	fff00613          	li	a2,-1
    478c:	01810593          	addi	a1,sp,24
    4790:	12c10513          	addi	a0,sp,300
    4794:	ac4fd0ef          	jal	1a58 <str_parse_hex.constprop.0.isra.0>
    4798:	00010637          	lui	a2,0x10
    479c:	00a00793          	li	a5,10
    47a0:	fff60613          	addi	a2,a2,-1 # ffff <_idata_start+0x9633>
    47a4:	01410593          	addi	a1,sp,20
    47a8:	12810513          	addi	a0,sp,296
    47ac:	12f10623          	sb	a5,300(sp)
    47b0:	aa8fd0ef          	jal	1a58 <str_parse_hex.constprop.0.isra.0>
    47b4:	000065b7          	lui	a1,0x6
    47b8:	0dc58593          	addi	a1,a1,220 # 60dc <__modsi3+0x894>
    47bc:	00040513          	mv	a0,s0
    47c0:	a05fb0ef          	jal	1c4 <uart_send>
    47c4:	02c42783          	lw	a5,44(s0)
    47c8:	01c10593          	addi	a1,sp,28
    47cc:	00040513          	mv	a0,s0
    47d0:	014787b3          	add	a5,a5,s4
    47d4:	0007a783          	lw	a5,0(a5)
    47d8:	0087a783          	lw	a5,8(a5)
    47dc:	0007a683          	lw	a3,0(a5)
    47e0:	0006d783          	lhu	a5,0(a3)
    47e4:	00879713          	slli	a4,a5,0x8
    47e8:	0087d793          	srli	a5,a5,0x8
    47ec:	00f76733          	or	a4,a4,a5
    47f0:	0006a783          	lw	a5,0(a3)
    47f4:	00e11f23          	sh	a4,30(sp)
    47f8:	0187d693          	srli	a3,a5,0x18
    47fc:	0107d793          	srli	a5,a5,0x10
    4800:	00d10e23          	sb	a3,28(sp)
    4804:	00f10ea3          	sb	a5,29(sp)
    4808:	a01fb0ef          	jal	208 <uart_send_ip>
    480c:	43cd0593          	addi	a1,s10,1084
    4810:	00040513          	mv	a0,s0
    4814:	9b1fb0ef          	jal	1c4 <uart_send>
    4818:	12810593          	addi	a1,sp,296
    481c:	00040513          	mv	a0,s0
    4820:	a61fb0ef          	jal	280 <uart_recv>
    4824:	fe050ae3          	beqz	a0,4818 <main+0x179c>
    4828:	01c10593          	addi	a1,sp,28
    482c:	12810513          	addi	a0,sp,296
    4830:	85dfd0ef          	jal	208c <net_str_parse_ip.isra.0>
    4834:	01d14783          	lbu	a5,29(sp)
    4838:	01c14c03          	lbu	s8,28(sp)
    483c:	000065b7          	lui	a1,0x6
    4840:	01079793          	slli	a5,a5,0x10
    4844:	018c1c13          	slli	s8,s8,0x18
    4848:	00fc6c33          	or	s8,s8,a5
    484c:	01f14783          	lbu	a5,31(sp)
    4850:	0f458593          	addi	a1,a1,244 # 60f4 <__modsi3+0x8ac>
    4854:	00040513          	mv	a0,s0
    4858:	00fc6c33          	or	s8,s8,a5
    485c:	01e14783          	lbu	a5,30(sp)
    4860:	00879793          	slli	a5,a5,0x8
    4864:	00fc6c33          	or	s8,s8,a5
    4868:	95dfb0ef          	jal	1c4 <uart_send>
    486c:	02c42783          	lw	a5,44(s0)
    4870:	00040513          	mv	a0,s0
    4874:	014787b3          	add	a5,a5,s4
    4878:	0007a783          	lw	a5,0(a5)
    487c:	00c7a783          	lw	a5,12(a5)
    4880:	0007a783          	lw	a5,0(a5)
    4884:	0007d583          	lhu	a1,0(a5)
    4888:	02b12023          	sw	a1,32(sp)
    488c:	87dfb0ef          	jal	108 <uart_send_dec>
    4890:	43cd0593          	addi	a1,s10,1084
    4894:	00040513          	mv	a0,s0
    4898:	92dfb0ef          	jal	1c4 <uart_send>
    489c:	12810593          	addi	a1,sp,296
    48a0:	00040513          	mv	a0,s0
    48a4:	9ddfb0ef          	jal	280 <uart_recv>
    48a8:	fe050ae3          	beqz	a0,489c <main+0x1820>
    48ac:	000106b7          	lui	a3,0x10
    48b0:	fff68693          	addi	a3,a3,-1 # ffff <_idata_start+0x9633>
    48b4:	00000613          	li	a2,0
    48b8:	02010593          	addi	a1,sp,32
    48bc:	12810513          	addi	a0,sp,296
    48c0:	c3dfb0ef          	jal	4fc <str_parse_uint32>
    48c4:	000065b7          	lui	a1,0x6
    48c8:	11058593          	addi	a1,a1,272 # 6110 <__modsi3+0x8c8>
    48cc:	00040513          	mv	a0,s0
    48d0:	8f5fb0ef          	jal	1c4 <uart_send>
    48d4:	02c42783          	lw	a5,44(s0)
    48d8:	00040513          	mv	a0,s0
    48dc:	00800613          	li	a2,8
    48e0:	014787b3          	add	a5,a5,s4
    48e4:	0007a783          	lw	a5,0(a5)
    48e8:	0107a783          	lw	a5,16(a5)
    48ec:	0007a783          	lw	a5,0(a5)
    48f0:	0007a583          	lw	a1,0(a5)
    48f4:	02b12223          	sw	a1,36(sp)
    48f8:	fa4fb0ef          	jal	9c <uart_send_hex>
    48fc:	43cd0593          	addi	a1,s10,1084
    4900:	00040513          	mv	a0,s0
    4904:	8c1fb0ef          	jal	1c4 <uart_send>
    4908:	12810593          	addi	a1,sp,296
    490c:	00040513          	mv	a0,s0
    4910:	971fb0ef          	jal	280 <uart_recv>
    4914:	fe050ae3          	beqz	a0,4908 <main+0x188c>
    4918:	fff00613          	li	a2,-1
    491c:	02410593          	addi	a1,sp,36
    4920:	12810513          	addi	a0,sp,296
    4924:	934fd0ef          	jal	1a58 <str_parse_hex.constprop.0.isra.0>
    4928:	000065b7          	lui	a1,0x6
    492c:	12c58593          	addi	a1,a1,300 # 612c <__modsi3+0x8e4>
    4930:	00040513          	mv	a0,s0
    4934:	891fb0ef          	jal	1c4 <uart_send>
    4938:	02c42783          	lw	a5,44(s0)
    493c:	00400613          	li	a2,4
    4940:	00040513          	mv	a0,s0
    4944:	014787b3          	add	a5,a5,s4
    4948:	0007a783          	lw	a5,0(a5)
    494c:	0147a783          	lw	a5,20(a5)
    4950:	0007a783          	lw	a5,0(a5)
    4954:	0007d583          	lhu	a1,0(a5)
    4958:	02b12423          	sw	a1,40(sp)
    495c:	f40fb0ef          	jal	9c <uart_send_hex>
    4960:	02c42783          	lw	a5,44(s0)
    4964:	00040513          	mv	a0,s0
    4968:	00800613          	li	a2,8
    496c:	014787b3          	add	a5,a5,s4
    4970:	0007a783          	lw	a5,0(a5)
    4974:	0187a783          	lw	a5,24(a5)
    4978:	0007a783          	lw	a5,0(a5)
    497c:	0007a583          	lw	a1,0(a5)
    4980:	02b12623          	sw	a1,44(sp)
    4984:	f18fb0ef          	jal	9c <uart_send_hex>
    4988:	43cd0593          	addi	a1,s10,1084
    498c:	00040513          	mv	a0,s0
    4990:	835fb0ef          	jal	1c4 <uart_send>
    4994:	12810593          	addi	a1,sp,296
    4998:	00040513          	mv	a0,s0
    499c:	8e5fb0ef          	jal	280 <uart_recv>
    49a0:	fe050ae3          	beqz	a0,4994 <main+0x1918>
    49a4:	12810513          	addi	a0,sp,296
    49a8:	b01fb0ef          	jal	4a8 <strlen>
    49ac:	00d00793          	li	a5,13
    49b0:	02f51863          	bne	a0,a5,49e0 <main+0x1964>
    49b4:	fff00613          	li	a2,-1
    49b8:	02c10593          	addi	a1,sp,44
    49bc:	12c10513          	addi	a0,sp,300
    49c0:	898fd0ef          	jal	1a58 <str_parse_hex.constprop.0.isra.0>
    49c4:	00010637          	lui	a2,0x10
    49c8:	00a00793          	li	a5,10
    49cc:	fff60613          	addi	a2,a2,-1 # ffff <_idata_start+0x9633>
    49d0:	02810593          	addi	a1,sp,40
    49d4:	12810513          	addi	a0,sp,296
    49d8:	12f10623          	sb	a5,300(sp)
    49dc:	87cfd0ef          	jal	1a58 <str_parse_hex.constprop.0.isra.0>
    49e0:	000065b7          	lui	a1,0x6
    49e4:	14458593          	addi	a1,a1,324 # 6144 <__modsi3+0x8fc>
    49e8:	00040513          	mv	a0,s0
    49ec:	fd8fb0ef          	jal	1c4 <uart_send>
    49f0:	02c42783          	lw	a5,44(s0)
    49f4:	03010593          	addi	a1,sp,48
    49f8:	00040513          	mv	a0,s0
    49fc:	014787b3          	add	a5,a5,s4
    4a00:	0007a783          	lw	a5,0(a5)
    4a04:	01c7a783          	lw	a5,28(a5)
    4a08:	0007a683          	lw	a3,0(a5)
    4a0c:	0006d783          	lhu	a5,0(a3)
    4a10:	00879713          	slli	a4,a5,0x8
    4a14:	0087d793          	srli	a5,a5,0x8
    4a18:	00f76733          	or	a4,a4,a5
    4a1c:	0006a783          	lw	a5,0(a3)
    4a20:	02e11923          	sh	a4,50(sp)
    4a24:	0187d693          	srli	a3,a5,0x18
    4a28:	0107d793          	srli	a5,a5,0x10
    4a2c:	02d10823          	sb	a3,48(sp)
    4a30:	02f108a3          	sb	a5,49(sp)
    4a34:	fd4fb0ef          	jal	208 <uart_send_ip>
    4a38:	43cd0593          	addi	a1,s10,1084
    4a3c:	00040513          	mv	a0,s0
    4a40:	f84fb0ef          	jal	1c4 <uart_send>
    4a44:	12810593          	addi	a1,sp,296
    4a48:	00040513          	mv	a0,s0
    4a4c:	835fb0ef          	jal	280 <uart_recv>
    4a50:	fe050ae3          	beqz	a0,4a44 <main+0x19c8>
    4a54:	03010593          	addi	a1,sp,48
    4a58:	12810513          	addi	a0,sp,296
    4a5c:	e30fd0ef          	jal	208c <net_str_parse_ip.isra.0>
    4a60:	03114783          	lbu	a5,49(sp)
    4a64:	03014b03          	lbu	s6,48(sp)
    4a68:	000065b7          	lui	a1,0x6
    4a6c:	01079793          	slli	a5,a5,0x10
    4a70:	018b1b13          	slli	s6,s6,0x18
    4a74:	00fb6b33          	or	s6,s6,a5
    4a78:	03314783          	lbu	a5,51(sp)
    4a7c:	15c58593          	addi	a1,a1,348 # 615c <__modsi3+0x914>
    4a80:	00040513          	mv	a0,s0
    4a84:	00fb6b33          	or	s6,s6,a5
    4a88:	03214783          	lbu	a5,50(sp)
    4a8c:	00879793          	slli	a5,a5,0x8
    4a90:	00fb6b33          	or	s6,s6,a5
    4a94:	f30fb0ef          	jal	1c4 <uart_send>
    4a98:	02c42783          	lw	a5,44(s0)
    4a9c:	00040513          	mv	a0,s0
    4aa0:	014787b3          	add	a5,a5,s4
    4aa4:	0007a783          	lw	a5,0(a5)
    4aa8:	0207a783          	lw	a5,32(a5)
    4aac:	0007a783          	lw	a5,0(a5)
    4ab0:	0007d583          	lhu	a1,0(a5)
    4ab4:	02b12a23          	sw	a1,52(sp)
    4ab8:	e50fb0ef          	jal	108 <uart_send_dec>
    4abc:	43cd0593          	addi	a1,s10,1084
    4ac0:	00040513          	mv	a0,s0
    4ac4:	f00fb0ef          	jal	1c4 <uart_send>
    4ac8:	12810593          	addi	a1,sp,296
    4acc:	00040513          	mv	a0,s0
    4ad0:	fb0fb0ef          	jal	280 <uart_recv>
    4ad4:	fe050ae3          	beqz	a0,4ac8 <main+0x1a4c>
    4ad8:	000106b7          	lui	a3,0x10
    4adc:	fff68693          	addi	a3,a3,-1 # ffff <_idata_start+0x9633>
    4ae0:	00000613          	li	a2,0
    4ae4:	03410593          	addi	a1,sp,52
    4ae8:	12810513          	addi	a0,sp,296
    4aec:	a11fb0ef          	jal	4fc <str_parse_uint32>
    4af0:	000065b7          	lui	a1,0x6
    4af4:	17858593          	addi	a1,a1,376 # 6178 <__modsi3+0x930>
    4af8:	00040513          	mv	a0,s0
    4afc:	ec8fb0ef          	jal	1c4 <uart_send>
    4b00:	02c42783          	lw	a5,44(s0)
    4b04:	00040513          	mv	a0,s0
    4b08:	00800613          	li	a2,8
    4b0c:	014787b3          	add	a5,a5,s4
    4b10:	0007a783          	lw	a5,0(a5)
    4b14:	0247a783          	lw	a5,36(a5)
    4b18:	0007a783          	lw	a5,0(a5)
    4b1c:	0007a583          	lw	a1,0(a5)
    4b20:	02b12c23          	sw	a1,56(sp)
    4b24:	d78fb0ef          	jal	9c <uart_send_hex>
    4b28:	43cd0593          	addi	a1,s10,1084
    4b2c:	00040513          	mv	a0,s0
    4b30:	e94fb0ef          	jal	1c4 <uart_send>
    4b34:	12810593          	addi	a1,sp,296
    4b38:	00040513          	mv	a0,s0
    4b3c:	f44fb0ef          	jal	280 <uart_recv>
    4b40:	fe050ae3          	beqz	a0,4b34 <main+0x1ab8>
    4b44:	fff00613          	li	a2,-1
    4b48:	03810593          	addi	a1,sp,56
    4b4c:	12810513          	addi	a0,sp,296
    4b50:	f09fc0ef          	jal	1a58 <str_parse_hex.constprop.0.isra.0>
    4b54:	000065b7          	lui	a1,0x6
    4b58:	19858593          	addi	a1,a1,408 # 6198 <__modsi3+0x950>
    4b5c:	00040513          	mv	a0,s0
    4b60:	e64fb0ef          	jal	1c4 <uart_send>
    4b64:	02c42783          	lw	a5,44(s0)
    4b68:	00040513          	mv	a0,s0
    4b6c:	00800613          	li	a2,8
    4b70:	014787b3          	add	a5,a5,s4
    4b74:	0007a783          	lw	a5,0(a5)
    4b78:	0287a783          	lw	a5,40(a5)
    4b7c:	0007a783          	lw	a5,0(a5)
    4b80:	0007a583          	lw	a1,0(a5)
    4b84:	02b12e23          	sw	a1,60(sp)
    4b88:	d14fb0ef          	jal	9c <uart_send_hex>
    4b8c:	43cd0593          	addi	a1,s10,1084
    4b90:	00040513          	mv	a0,s0
    4b94:	e30fb0ef          	jal	1c4 <uart_send>
    4b98:	12810593          	addi	a1,sp,296
    4b9c:	00040513          	mv	a0,s0
    4ba0:	ee0fb0ef          	jal	280 <uart_recv>
    4ba4:	fe050ae3          	beqz	a0,4b98 <main+0x1b1c>
    4ba8:	fff00613          	li	a2,-1
    4bac:	03c10593          	addi	a1,sp,60
    4bb0:	12810513          	addi	a0,sp,296
    4bb4:	ea5fc0ef          	jal	1a58 <str_parse_hex.constprop.0.isra.0>
    4bb8:	000065b7          	lui	a1,0x6
    4bbc:	1c058593          	addi	a1,a1,448 # 61c0 <__modsi3+0x978>
    4bc0:	00040513          	mv	a0,s0
    4bc4:	e00fb0ef          	jal	1c4 <uart_send>
    4bc8:	02c42783          	lw	a5,44(s0)
    4bcc:	00040513          	mv	a0,s0
    4bd0:	00800613          	li	a2,8
    4bd4:	014787b3          	add	a5,a5,s4
    4bd8:	0007a783          	lw	a5,0(a5)
    4bdc:	02c7a783          	lw	a5,44(a5)
    4be0:	0007a783          	lw	a5,0(a5)
    4be4:	0007a583          	lw	a1,0(a5)
    4be8:	04b12023          	sw	a1,64(sp)
    4bec:	cb0fb0ef          	jal	9c <uart_send_hex>
    4bf0:	43cd0593          	addi	a1,s10,1084
    4bf4:	00040513          	mv	a0,s0
    4bf8:	dccfb0ef          	jal	1c4 <uart_send>
    4bfc:	12810593          	addi	a1,sp,296
    4c00:	00040513          	mv	a0,s0
    4c04:	e7cfb0ef          	jal	280 <uart_recv>
    4c08:	fe050ae3          	beqz	a0,4bfc <main+0x1b80>
    4c0c:	fff00613          	li	a2,-1
    4c10:	04010593          	addi	a1,sp,64
    4c14:	12810513          	addi	a0,sp,296
    4c18:	e41fc0ef          	jal	1a58 <str_parse_hex.constprop.0.isra.0>
    4c1c:	000065b7          	lui	a1,0x6
    4c20:	1e858593          	addi	a1,a1,488 # 61e8 <__modsi3+0x9a0>
    4c24:	00040513          	mv	a0,s0
    4c28:	d9cfb0ef          	jal	1c4 <uart_send>
    4c2c:	02c42783          	lw	a5,44(s0)
    4c30:	00040513          	mv	a0,s0
    4c34:	00800613          	li	a2,8
    4c38:	014787b3          	add	a5,a5,s4
    4c3c:	0007a783          	lw	a5,0(a5)
    4c40:	0307a783          	lw	a5,48(a5)
    4c44:	0007a783          	lw	a5,0(a5)
    4c48:	0007a583          	lw	a1,0(a5)
    4c4c:	04b12223          	sw	a1,68(sp)
    4c50:	c4cfb0ef          	jal	9c <uart_send_hex>
    4c54:	43cd0593          	addi	a1,s10,1084
    4c58:	00040513          	mv	a0,s0
    4c5c:	d68fb0ef          	jal	1c4 <uart_send>
    4c60:	12810593          	addi	a1,sp,296
    4c64:	00040513          	mv	a0,s0
    4c68:	e18fb0ef          	jal	280 <uart_recv>
    4c6c:	fe050ae3          	beqz	a0,4c60 <main+0x1be4>
    4c70:	fff00613          	li	a2,-1
    4c74:	04410593          	addi	a1,sp,68
    4c78:	12810513          	addi	a0,sp,296
    4c7c:	dddfc0ef          	jal	1a58 <str_parse_hex.constprop.0.isra.0>
    4c80:	000065b7          	lui	a1,0x6
    4c84:	21058593          	addi	a1,a1,528 # 6210 <__modsi3+0x9c8>
    4c88:	00040513          	mv	a0,s0
    4c8c:	d38fb0ef          	jal	1c4 <uart_send>
    4c90:	02c42783          	lw	a5,44(s0)
    4c94:	00040513          	mv	a0,s0
    4c98:	00800613          	li	a2,8
    4c9c:	014787b3          	add	a5,a5,s4
    4ca0:	0007a783          	lw	a5,0(a5)
    4ca4:	0347a783          	lw	a5,52(a5)
    4ca8:	0007a783          	lw	a5,0(a5)
    4cac:	0007a583          	lw	a1,0(a5)
    4cb0:	04b12423          	sw	a1,72(sp)
    4cb4:	be8fb0ef          	jal	9c <uart_send_hex>
    4cb8:	43cd0593          	addi	a1,s10,1084
    4cbc:	00040513          	mv	a0,s0
    4cc0:	d04fb0ef          	jal	1c4 <uart_send>
    4cc4:	12810593          	addi	a1,sp,296
    4cc8:	00040513          	mv	a0,s0
    4ccc:	db4fb0ef          	jal	280 <uart_recv>
    4cd0:	fe050ae3          	beqz	a0,4cc4 <main+0x1c48>
    4cd4:	fff00613          	li	a2,-1
    4cd8:	04810593          	addi	a1,sp,72
    4cdc:	12810513          	addi	a0,sp,296
    4ce0:	d79fc0ef          	jal	1a58 <str_parse_hex.constprop.0.isra.0>
    4ce4:	000065b7          	lui	a1,0x6
    4ce8:	23858593          	addi	a1,a1,568 # 6238 <__modsi3+0x9f0>
    4cec:	00040513          	mv	a0,s0
    4cf0:	cd4fb0ef          	jal	1c4 <uart_send>
    4cf4:	02c42783          	lw	a5,44(s0)
    4cf8:	00040513          	mv	a0,s0
    4cfc:	00800613          	li	a2,8
    4d00:	014787b3          	add	a5,a5,s4
    4d04:	0007a783          	lw	a5,0(a5)
    4d08:	0387a783          	lw	a5,56(a5)
    4d0c:	0007a783          	lw	a5,0(a5)
    4d10:	0007a583          	lw	a1,0(a5)
    4d14:	04b12623          	sw	a1,76(sp)
    4d18:	b84fb0ef          	jal	9c <uart_send_hex>
    4d1c:	43cd0593          	addi	a1,s10,1084
    4d20:	00040513          	mv	a0,s0
    4d24:	ca0fb0ef          	jal	1c4 <uart_send>
    4d28:	12810593          	addi	a1,sp,296
    4d2c:	00040513          	mv	a0,s0
    4d30:	d50fb0ef          	jal	280 <uart_recv>
    4d34:	fe050ae3          	beqz	a0,4d28 <main+0x1cac>
    4d38:	fff00613          	li	a2,-1
    4d3c:	04c10593          	addi	a1,sp,76
    4d40:	12810513          	addi	a0,sp,296
    4d44:	d15fc0ef          	jal	1a58 <str_parse_hex.constprop.0.isra.0>
    4d48:	000065b7          	lui	a1,0x6
    4d4c:	26058593          	addi	a1,a1,608 # 6260 <__modsi3+0xa18>
    4d50:	00040513          	mv	a0,s0
    4d54:	c70fb0ef          	jal	1c4 <uart_send>
    4d58:	02c42783          	lw	a5,44(s0)
    4d5c:	00040513          	mv	a0,s0
    4d60:	00800613          	li	a2,8
    4d64:	014787b3          	add	a5,a5,s4
    4d68:	0007a783          	lw	a5,0(a5)
    4d6c:	03c7a783          	lw	a5,60(a5)
    4d70:	0007a783          	lw	a5,0(a5)
    4d74:	0007a583          	lw	a1,0(a5)
    4d78:	04b12823          	sw	a1,80(sp)
    4d7c:	b20fb0ef          	jal	9c <uart_send_hex>
    4d80:	43cd0593          	addi	a1,s10,1084
    4d84:	00040513          	mv	a0,s0
    4d88:	c3cfb0ef          	jal	1c4 <uart_send>
    4d8c:	12810593          	addi	a1,sp,296
    4d90:	00040513          	mv	a0,s0
    4d94:	cecfb0ef          	jal	280 <uart_recv>
    4d98:	fe050ae3          	beqz	a0,4d8c <main+0x1d10>
    4d9c:	fff00613          	li	a2,-1
    4da0:	05010593          	addi	a1,sp,80
    4da4:	12810513          	addi	a0,sp,296
    4da8:	cb1fc0ef          	jal	1a58 <str_parse_hex.constprop.0.isra.0>
    4dac:	000065b7          	lui	a1,0x6
    4db0:	28858593          	addi	a1,a1,648 # 6288 <__modsi3+0xa40>
    4db4:	00040513          	mv	a0,s0
    4db8:	c0cfb0ef          	jal	1c4 <uart_send>
    4dbc:	02c42783          	lw	a5,44(s0)
    4dc0:	00040513          	mv	a0,s0
    4dc4:	00800613          	li	a2,8
    4dc8:	014787b3          	add	a5,a5,s4
    4dcc:	0007a783          	lw	a5,0(a5)
    4dd0:	0407a783          	lw	a5,64(a5)
    4dd4:	0007a783          	lw	a5,0(a5)
    4dd8:	0007a583          	lw	a1,0(a5)
    4ddc:	04b12a23          	sw	a1,84(sp)
    4de0:	abcfb0ef          	jal	9c <uart_send_hex>
    4de4:	43cd0593          	addi	a1,s10,1084
    4de8:	00040513          	mv	a0,s0
    4dec:	bd8fb0ef          	jal	1c4 <uart_send>
    4df0:	12810593          	addi	a1,sp,296
    4df4:	00040513          	mv	a0,s0
    4df8:	c88fb0ef          	jal	280 <uart_recv>
    4dfc:	fe050ae3          	beqz	a0,4df0 <main+0x1d74>
    4e00:	fff00613          	li	a2,-1
    4e04:	05410593          	addi	a1,sp,84
    4e08:	12810513          	addi	a0,sp,296
    4e0c:	c4dfc0ef          	jal	1a58 <str_parse_hex.constprop.0.isra.0>
    4e10:	000065b7          	lui	a1,0x6
    4e14:	2b058593          	addi	a1,a1,688 # 62b0 <__modsi3+0xa68>
    4e18:	00040513          	mv	a0,s0
    4e1c:	ba8fb0ef          	jal	1c4 <uart_send>
    4e20:	02c42783          	lw	a5,44(s0)
    4e24:	002c9a13          	slli	s4,s9,0x2
    4e28:	00040513          	mv	a0,s0
    4e2c:	014787b3          	add	a5,a5,s4
    4e30:	0007a783          	lw	a5,0(a5)
    4e34:	00800613          	li	a2,8
    4e38:	00006d37          	lui	s10,0x6
    4e3c:	0447a783          	lw	a5,68(a5)
    4e40:	0007a783          	lw	a5,0(a5)
    4e44:	0007a583          	lw	a1,0(a5)
    4e48:	04b12c23          	sw	a1,88(sp)
    4e4c:	a50fb0ef          	jal	9c <uart_send_hex>
    4e50:	43cd0593          	addi	a1,s10,1084 # 643c <__modsi3+0xbf4>
    4e54:	00040513          	mv	a0,s0
    4e58:	b6cfb0ef          	jal	1c4 <uart_send>
    4e5c:	12810593          	addi	a1,sp,296
    4e60:	00040513          	mv	a0,s0
    4e64:	c1cfb0ef          	jal	280 <uart_recv>
    4e68:	fe050ae3          	beqz	a0,4e5c <main+0x1de0>
    4e6c:	fff00613          	li	a2,-1
    4e70:	05810593          	addi	a1,sp,88
    4e74:	12810513          	addi	a0,sp,296
    4e78:	be1fc0ef          	jal	1a58 <str_parse_hex.constprop.0.isra.0>
    4e7c:	000065b7          	lui	a1,0x6
    4e80:	2d858593          	addi	a1,a1,728 # 62d8 <__modsi3+0xa90>
    4e84:	00040513          	mv	a0,s0
    4e88:	b3cfb0ef          	jal	1c4 <uart_send>
    4e8c:	02c42783          	lw	a5,44(s0)
    4e90:	00040513          	mv	a0,s0
    4e94:	00800613          	li	a2,8
    4e98:	014787b3          	add	a5,a5,s4
    4e9c:	0007a783          	lw	a5,0(a5)
    4ea0:	0487a783          	lw	a5,72(a5)
    4ea4:	0007a783          	lw	a5,0(a5)
    4ea8:	0007a583          	lw	a1,0(a5)
    4eac:	04b12e23          	sw	a1,92(sp)
    4eb0:	9ecfb0ef          	jal	9c <uart_send_hex>
    4eb4:	43cd0593          	addi	a1,s10,1084
    4eb8:	00040513          	mv	a0,s0
    4ebc:	b08fb0ef          	jal	1c4 <uart_send>
    4ec0:	12810593          	addi	a1,sp,296
    4ec4:	00040513          	mv	a0,s0
    4ec8:	bb8fb0ef          	jal	280 <uart_recv>
    4ecc:	fe050ae3          	beqz	a0,4ec0 <main+0x1e44>
    4ed0:	fff00613          	li	a2,-1
    4ed4:	05c10593          	addi	a1,sp,92
    4ed8:	12810513          	addi	a0,sp,296
    4edc:	b7dfc0ef          	jal	1a58 <str_parse_hex.constprop.0.isra.0>
    4ee0:	000065b7          	lui	a1,0x6
    4ee4:	30058593          	addi	a1,a1,768 # 6300 <__modsi3+0xab8>
    4ee8:	00040513          	mv	a0,s0
    4eec:	ad8fb0ef          	jal	1c4 <uart_send>
    4ef0:	02c42783          	lw	a5,44(s0)
    4ef4:	00040513          	mv	a0,s0
    4ef8:	00800613          	li	a2,8
    4efc:	014787b3          	add	a5,a5,s4
    4f00:	0007a783          	lw	a5,0(a5)
    4f04:	04c7a783          	lw	a5,76(a5)
    4f08:	0007a783          	lw	a5,0(a5)
    4f0c:	0007a583          	lw	a1,0(a5)
    4f10:	06b12023          	sw	a1,96(sp)
    4f14:	988fb0ef          	jal	9c <uart_send_hex>
    4f18:	43cd0593          	addi	a1,s10,1084
    4f1c:	00040513          	mv	a0,s0
    4f20:	aa4fb0ef          	jal	1c4 <uart_send>
    4f24:	12810593          	addi	a1,sp,296
    4f28:	00040513          	mv	a0,s0
    4f2c:	b54fb0ef          	jal	280 <uart_recv>
    4f30:	fe050ae3          	beqz	a0,4f24 <main+0x1ea8>
    4f34:	fff00613          	li	a2,-1
    4f38:	06010593          	addi	a1,sp,96
    4f3c:	12810513          	addi	a0,sp,296
    4f40:	b19fc0ef          	jal	1a58 <str_parse_hex.constprop.0.isra.0>
    4f44:	000065b7          	lui	a1,0x6
    4f48:	32858593          	addi	a1,a1,808 # 6328 <__modsi3+0xae0>
    4f4c:	00040513          	mv	a0,s0
    4f50:	a74fb0ef          	jal	1c4 <uart_send>
    4f54:	02c42783          	lw	a5,44(s0)
    4f58:	00040513          	mv	a0,s0
    4f5c:	00800613          	li	a2,8
    4f60:	014787b3          	add	a5,a5,s4
    4f64:	0007a783          	lw	a5,0(a5)
    4f68:	0507a783          	lw	a5,80(a5)
    4f6c:	0007a783          	lw	a5,0(a5)
    4f70:	0007a583          	lw	a1,0(a5)
    4f74:	06b12223          	sw	a1,100(sp)
    4f78:	924fb0ef          	jal	9c <uart_send_hex>
    4f7c:	43cd0593          	addi	a1,s10,1084
    4f80:	00040513          	mv	a0,s0
    4f84:	a40fb0ef          	jal	1c4 <uart_send>
    4f88:	12810593          	addi	a1,sp,296
    4f8c:	00040513          	mv	a0,s0
    4f90:	af0fb0ef          	jal	280 <uart_recv>
    4f94:	fe050ae3          	beqz	a0,4f88 <main+0x1f0c>
    4f98:	fff00613          	li	a2,-1
    4f9c:	06410593          	addi	a1,sp,100
    4fa0:	12810513          	addi	a0,sp,296
    4fa4:	ab5fc0ef          	jal	1a58 <str_parse_hex.constprop.0.isra.0>
    4fa8:	000065b7          	lui	a1,0x6
    4fac:	35058593          	addi	a1,a1,848 # 6350 <__modsi3+0xb08>
    4fb0:	00040513          	mv	a0,s0
    4fb4:	a10fb0ef          	jal	1c4 <uart_send>
    4fb8:	02c42783          	lw	a5,44(s0)
    4fbc:	00040513          	mv	a0,s0
    4fc0:	00800613          	li	a2,8
    4fc4:	014787b3          	add	a5,a5,s4
    4fc8:	0007a783          	lw	a5,0(a5)
    4fcc:	0547a783          	lw	a5,84(a5)
    4fd0:	0007a783          	lw	a5,0(a5)
    4fd4:	0007a583          	lw	a1,0(a5)
    4fd8:	08b12423          	sw	a1,136(sp)
    4fdc:	8c0fb0ef          	jal	9c <uart_send_hex>
    4fe0:	43cd0593          	addi	a1,s10,1084
    4fe4:	00040513          	mv	a0,s0
    4fe8:	9dcfb0ef          	jal	1c4 <uart_send>
    4fec:	12810593          	addi	a1,sp,296
    4ff0:	00040513          	mv	a0,s0
    4ff4:	a8cfb0ef          	jal	280 <uart_recv>
    4ff8:	fe050ae3          	beqz	a0,4fec <main+0x1f70>
    4ffc:	fff00613          	li	a2,-1
    5000:	08810593          	addi	a1,sp,136
    5004:	12810513          	addi	a0,sp,296
    5008:	a51fc0ef          	jal	1a58 <str_parse_hex.constprop.0.isra.0>
    500c:	000065b7          	lui	a1,0x6
    5010:	37858593          	addi	a1,a1,888 # 6378 <__modsi3+0xb30>
    5014:	00040513          	mv	a0,s0
    5018:	9acfb0ef          	jal	1c4 <uart_send>
    501c:	02c42783          	lw	a5,44(s0)
    5020:	00040513          	mv	a0,s0
    5024:	00800613          	li	a2,8
    5028:	014787b3          	add	a5,a5,s4
    502c:	0007a783          	lw	a5,0(a5)
    5030:	0587a783          	lw	a5,88(a5)
    5034:	0007a783          	lw	a5,0(a5)
    5038:	0007a583          	lw	a1,0(a5)
    503c:	0ab12423          	sw	a1,168(sp)
    5040:	85cfb0ef          	jal	9c <uart_send_hex>
    5044:	43cd0593          	addi	a1,s10,1084
    5048:	00040513          	mv	a0,s0
    504c:	978fb0ef          	jal	1c4 <uart_send>
    5050:	12810593          	addi	a1,sp,296
    5054:	00040513          	mv	a0,s0
    5058:	a28fb0ef          	jal	280 <uart_recv>
    505c:	fe050ae3          	beqz	a0,5050 <main+0x1fd4>
    5060:	fff00613          	li	a2,-1
    5064:	0a810593          	addi	a1,sp,168
    5068:	12810513          	addi	a0,sp,296
    506c:	9edfc0ef          	jal	1a58 <str_parse_hex.constprop.0.isra.0>
    5070:	000065b7          	lui	a1,0x6
    5074:	3a058593          	addi	a1,a1,928 # 63a0 <__modsi3+0xb58>
    5078:	00040513          	mv	a0,s0
    507c:	948fb0ef          	jal	1c4 <uart_send>
    5080:	02c42783          	lw	a5,44(s0)
    5084:	00040513          	mv	a0,s0
    5088:	00800613          	li	a2,8
    508c:	014787b3          	add	a5,a5,s4
    5090:	0007a783          	lw	a5,0(a5)
    5094:	05c7a783          	lw	a5,92(a5)
    5098:	0007a783          	lw	a5,0(a5)
    509c:	0007a583          	lw	a1,0(a5)
    50a0:	0cb12423          	sw	a1,200(sp)
    50a4:	ff9fa0ef          	jal	9c <uart_send_hex>
    50a8:	43cd0593          	addi	a1,s10,1084
    50ac:	00040513          	mv	a0,s0
    50b0:	914fb0ef          	jal	1c4 <uart_send>
    50b4:	12810593          	addi	a1,sp,296
    50b8:	00040513          	mv	a0,s0
    50bc:	9c4fb0ef          	jal	280 <uart_recv>
    50c0:	fe050ae3          	beqz	a0,50b4 <main+0x2038>
    50c4:	fff00613          	li	a2,-1
    50c8:	0c810593          	addi	a1,sp,200
    50cc:	12810513          	addi	a0,sp,296
    50d0:	989fc0ef          	jal	1a58 <str_parse_hex.constprop.0.isra.0>
    50d4:	000065b7          	lui	a1,0x6
    50d8:	3c858593          	addi	a1,a1,968 # 63c8 <__modsi3+0xb80>
    50dc:	00040513          	mv	a0,s0
    50e0:	8e4fb0ef          	jal	1c4 <uart_send>
    50e4:	02c42783          	lw	a5,44(s0)
    50e8:	00040513          	mv	a0,s0
    50ec:	00800613          	li	a2,8
    50f0:	014787b3          	add	a5,a5,s4
    50f4:	0007a783          	lw	a5,0(a5)
    50f8:	0607a783          	lw	a5,96(a5)
    50fc:	0007a783          	lw	a5,0(a5)
    5100:	0007a583          	lw	a1,0(a5)
    5104:	0eb12423          	sw	a1,232(sp)
    5108:	f95fa0ef          	jal	9c <uart_send_hex>
    510c:	43cd0593          	addi	a1,s10,1084
    5110:	00040513          	mv	a0,s0
    5114:	8b0fb0ef          	jal	1c4 <uart_send>
    5118:	12810593          	addi	a1,sp,296
    511c:	00040513          	mv	a0,s0
    5120:	960fb0ef          	jal	280 <uart_recv>
    5124:	fe050ae3          	beqz	a0,5118 <main+0x209c>
    5128:	fff00613          	li	a2,-1
    512c:	0e810593          	addi	a1,sp,232
    5130:	12810513          	addi	a0,sp,296
    5134:	925fc0ef          	jal	1a58 <str_parse_hex.constprop.0.isra.0>
    5138:	000065b7          	lui	a1,0x6
    513c:	3f058593          	addi	a1,a1,1008 # 63f0 <__modsi3+0xba8>
    5140:	00040513          	mv	a0,s0
    5144:	880fb0ef          	jal	1c4 <uart_send>
    5148:	02c42783          	lw	a5,44(s0)
    514c:	00040513          	mv	a0,s0
    5150:	00800613          	li	a2,8
    5154:	014787b3          	add	a5,a5,s4
    5158:	0007a783          	lw	a5,0(a5)
    515c:	0647a783          	lw	a5,100(a5)
    5160:	0007a783          	lw	a5,0(a5)
    5164:	0007a583          	lw	a1,0(a5)
    5168:	10b12423          	sw	a1,264(sp)
    516c:	f31fa0ef          	jal	9c <uart_send_hex>
    5170:	43cd0593          	addi	a1,s10,1084
    5174:	00040513          	mv	a0,s0
    5178:	84cfb0ef          	jal	1c4 <uart_send>
    517c:	12810593          	addi	a1,sp,296
    5180:	00040513          	mv	a0,s0
    5184:	8fcfb0ef          	jal	280 <uart_recv>
    5188:	fe050ae3          	beqz	a0,517c <main+0x2100>
    518c:	fff00613          	li	a2,-1
    5190:	10810593          	addi	a1,sp,264
    5194:	12810513          	addi	a0,sp,296
    5198:	8c1fc0ef          	jal	1a58 <str_parse_hex.constprop.0.isra.0>
    519c:	02c42783          	lw	a5,44(s0)
    51a0:	01415603          	lhu	a2,20(sp)
    51a4:	ffff0737          	lui	a4,0xffff0
    51a8:	014787b3          	add	a5,a5,s4
    51ac:	0007a783          	lw	a5,0(a5)
    51b0:	000065b7          	lui	a1,0x6
    51b4:	41858593          	addi	a1,a1,1048 # 6418 <__modsi3+0xbd0>
    51b8:	0007a783          	lw	a5,0(a5)
    51bc:	00040513          	mv	a0,s0
    51c0:	0007a683          	lw	a3,0(a5)
    51c4:	0006a783          	lw	a5,0(a3)
    51c8:	00e7f7b3          	and	a5,a5,a4
    51cc:	00c7e7b3          	or	a5,a5,a2
    51d0:	00f6a023          	sw	a5,0(a3)
    51d4:	02c42783          	lw	a5,44(s0)
    51d8:	01812683          	lw	a3,24(sp)
    51dc:	02015603          	lhu	a2,32(sp)
    51e0:	014787b3          	add	a5,a5,s4
    51e4:	0007a783          	lw	a5,0(a5)
    51e8:	0047a783          	lw	a5,4(a5)
    51ec:	0007a783          	lw	a5,0(a5)
    51f0:	00d7a023          	sw	a3,0(a5)
    51f4:	02c42783          	lw	a5,44(s0)
    51f8:	014787b3          	add	a5,a5,s4
    51fc:	0007a783          	lw	a5,0(a5)
    5200:	0087a783          	lw	a5,8(a5)
    5204:	0007a783          	lw	a5,0(a5)
    5208:	0187a023          	sw	s8,0(a5)
    520c:	02c42783          	lw	a5,44(s0)
    5210:	014787b3          	add	a5,a5,s4
    5214:	0007a783          	lw	a5,0(a5)
    5218:	00c7a783          	lw	a5,12(a5)
    521c:	0007a683          	lw	a3,0(a5)
    5220:	0006a783          	lw	a5,0(a3)
    5224:	00e7f7b3          	and	a5,a5,a4
    5228:	00c7e7b3          	or	a5,a5,a2
    522c:	00f6a023          	sw	a5,0(a3)
    5230:	02c42783          	lw	a5,44(s0)
    5234:	02412683          	lw	a3,36(sp)
    5238:	014787b3          	add	a5,a5,s4
    523c:	0007a783          	lw	a5,0(a5)
    5240:	0107a783          	lw	a5,16(a5)
    5244:	0007a783          	lw	a5,0(a5)
    5248:	00d7a023          	sw	a3,0(a5)
    524c:	02c42783          	lw	a5,44(s0)
    5250:	014787b3          	add	a5,a5,s4
    5254:	0007a783          	lw	a5,0(a5)
    5258:	02815603          	lhu	a2,40(sp)
    525c:	0147a783          	lw	a5,20(a5)
    5260:	0007a683          	lw	a3,0(a5)
    5264:	0006a783          	lw	a5,0(a3)
    5268:	00e7f7b3          	and	a5,a5,a4
    526c:	00c7e7b3          	or	a5,a5,a2
    5270:	00f6a023          	sw	a5,0(a3)
    5274:	02c42783          	lw	a5,44(s0)
    5278:	02c12683          	lw	a3,44(sp)
    527c:	03415603          	lhu	a2,52(sp)
    5280:	014787b3          	add	a5,a5,s4
    5284:	0007a783          	lw	a5,0(a5)
    5288:	0187a783          	lw	a5,24(a5)
    528c:	0007a783          	lw	a5,0(a5)
    5290:	00d7a023          	sw	a3,0(a5)
    5294:	02c42783          	lw	a5,44(s0)
    5298:	014787b3          	add	a5,a5,s4
    529c:	0007a783          	lw	a5,0(a5)
    52a0:	01c7a783          	lw	a5,28(a5)
    52a4:	0007a783          	lw	a5,0(a5)
    52a8:	0167a023          	sw	s6,0(a5)
    52ac:	02c42783          	lw	a5,44(s0)
    52b0:	014787b3          	add	a5,a5,s4
    52b4:	0007a783          	lw	a5,0(a5)
    52b8:	0207a783          	lw	a5,32(a5)
    52bc:	0007a683          	lw	a3,0(a5)
    52c0:	0006a783          	lw	a5,0(a3)
    52c4:	00e7f7b3          	and	a5,a5,a4
    52c8:	00c7e7b3          	or	a5,a5,a2
    52cc:	00f6a023          	sw	a5,0(a3)
    52d0:	02c42783          	lw	a5,44(s0)
    52d4:	03812703          	lw	a4,56(sp)
    52d8:	014787b3          	add	a5,a5,s4
    52dc:	0007a783          	lw	a5,0(a5)
    52e0:	0247a783          	lw	a5,36(a5)
    52e4:	0007a783          	lw	a5,0(a5)
    52e8:	00e7a023          	sw	a4,0(a5)
    52ec:	02c42783          	lw	a5,44(s0)
    52f0:	014787b3          	add	a5,a5,s4
    52f4:	0007a783          	lw	a5,0(a5)
    52f8:	0287a783          	lw	a5,40(a5)
    52fc:	03c12703          	lw	a4,60(sp)
    5300:	0007a783          	lw	a5,0(a5)
    5304:	00e7a023          	sw	a4,0(a5)
    5308:	02c42783          	lw	a5,44(s0)
    530c:	04012703          	lw	a4,64(sp)
    5310:	014787b3          	add	a5,a5,s4
    5314:	0007a783          	lw	a5,0(a5)
    5318:	02c7a783          	lw	a5,44(a5)
    531c:	0007a783          	lw	a5,0(a5)
    5320:	00e7a023          	sw	a4,0(a5)
    5324:	02c42783          	lw	a5,44(s0)
    5328:	04412703          	lw	a4,68(sp)
    532c:	014787b3          	add	a5,a5,s4
    5330:	0007a783          	lw	a5,0(a5)
    5334:	0307a783          	lw	a5,48(a5)
    5338:	0007a783          	lw	a5,0(a5)
    533c:	00e7a023          	sw	a4,0(a5)
    5340:	02c42783          	lw	a5,44(s0)
    5344:	04812703          	lw	a4,72(sp)
    5348:	014787b3          	add	a5,a5,s4
    534c:	0007a783          	lw	a5,0(a5)
    5350:	0347a783          	lw	a5,52(a5)
    5354:	0007a783          	lw	a5,0(a5)
    5358:	00e7a023          	sw	a4,0(a5)
    535c:	02c42783          	lw	a5,44(s0)
    5360:	04c12703          	lw	a4,76(sp)
    5364:	014787b3          	add	a5,a5,s4
    5368:	0007a783          	lw	a5,0(a5)
    536c:	0387a783          	lw	a5,56(a5)
    5370:	0007a783          	lw	a5,0(a5)
    5374:	00e7a023          	sw	a4,0(a5)
    5378:	02c42783          	lw	a5,44(s0)
    537c:	014787b3          	add	a5,a5,s4
    5380:	0007a783          	lw	a5,0(a5)
    5384:	03c7a783          	lw	a5,60(a5)
    5388:	0007a783          	lw	a5,0(a5)
    538c:	05012703          	lw	a4,80(sp)
    5390:	00e7a023          	sw	a4,0(a5)
    5394:	02c42783          	lw	a5,44(s0)
    5398:	05412703          	lw	a4,84(sp)
    539c:	014787b3          	add	a5,a5,s4
    53a0:	0007a783          	lw	a5,0(a5)
    53a4:	0407a783          	lw	a5,64(a5)
    53a8:	0007a783          	lw	a5,0(a5)
    53ac:	00e7a023          	sw	a4,0(a5)
    53b0:	02c42783          	lw	a5,44(s0)
    53b4:	05812703          	lw	a4,88(sp)
    53b8:	014787b3          	add	a5,a5,s4
    53bc:	0007a783          	lw	a5,0(a5)
    53c0:	0447a783          	lw	a5,68(a5)
    53c4:	0007a783          	lw	a5,0(a5)
    53c8:	00e7a023          	sw	a4,0(a5)
    53cc:	02c42783          	lw	a5,44(s0)
    53d0:	05c12703          	lw	a4,92(sp)
    53d4:	014787b3          	add	a5,a5,s4
    53d8:	0007a783          	lw	a5,0(a5)
    53dc:	0487a783          	lw	a5,72(a5)
    53e0:	0007a783          	lw	a5,0(a5)
    53e4:	00e7a023          	sw	a4,0(a5)
    53e8:	02c42783          	lw	a5,44(s0)
    53ec:	06012703          	lw	a4,96(sp)
    53f0:	014787b3          	add	a5,a5,s4
    53f4:	0007a783          	lw	a5,0(a5)
    53f8:	04c7a783          	lw	a5,76(a5)
    53fc:	0007a783          	lw	a5,0(a5)
    5400:	00e7a023          	sw	a4,0(a5)
    5404:	02c42783          	lw	a5,44(s0)
    5408:	06412703          	lw	a4,100(sp)
    540c:	014787b3          	add	a5,a5,s4
    5410:	0007a783          	lw	a5,0(a5)
    5414:	0507a783          	lw	a5,80(a5)
    5418:	0007a783          	lw	a5,0(a5)
    541c:	00e7a023          	sw	a4,0(a5)
    5420:	02c42783          	lw	a5,44(s0)
    5424:	08812703          	lw	a4,136(sp)
    5428:	014787b3          	add	a5,a5,s4
    542c:	0007a783          	lw	a5,0(a5)
    5430:	0547a783          	lw	a5,84(a5)
    5434:	0007a783          	lw	a5,0(a5)
    5438:	00e7a023          	sw	a4,0(a5)
    543c:	02c42783          	lw	a5,44(s0)
    5440:	0a812703          	lw	a4,168(sp)
    5444:	014787b3          	add	a5,a5,s4
    5448:	0007a783          	lw	a5,0(a5)
    544c:	0587a783          	lw	a5,88(a5)
    5450:	0007a783          	lw	a5,0(a5)
    5454:	00e7a023          	sw	a4,0(a5)
    5458:	02c42783          	lw	a5,44(s0)
    545c:	0c812703          	lw	a4,200(sp)
    5460:	014787b3          	add	a5,a5,s4
    5464:	0007a783          	lw	a5,0(a5)
    5468:	05c7a783          	lw	a5,92(a5)
    546c:	0007a783          	lw	a5,0(a5)
    5470:	00e7a023          	sw	a4,0(a5)
    5474:	02c42783          	lw	a5,44(s0)
    5478:	0e812703          	lw	a4,232(sp)
    547c:	014787b3          	add	a5,a5,s4
    5480:	0007a783          	lw	a5,0(a5)
    5484:	0607a783          	lw	a5,96(a5)
    5488:	0007a783          	lw	a5,0(a5)
    548c:	00e7a023          	sw	a4,0(a5)
    5490:	02c42783          	lw	a5,44(s0)
    5494:	10812703          	lw	a4,264(sp)
    5498:	014787b3          	add	a5,a5,s4
    549c:	0007a783          	lw	a5,0(a5)
    54a0:	0647a783          	lw	a5,100(a5)
    54a4:	0007a783          	lw	a5,0(a5)
    54a8:	00e7a023          	sw	a4,0(a5)
    54ac:	d19fa0ef          	jal	1c4 <uart_send>
    54b0:	12810593          	addi	a1,sp,296
    54b4:	00040513          	mv	a0,s0
    54b8:	dc9fa0ef          	jal	280 <uart_recv>
    54bc:	fe050ae3          	beqz	a0,54b0 <main+0x2434>
    54c0:	12814783          	lbu	a5,296(sp)
    54c4:	05900713          	li	a4,89
    54c8:	0df7f793          	andi	a5,a5,223
    54cc:	06e79263          	bne	a5,a4,5530 <main+0x24b4>
    54d0:	02c42783          	lw	a5,44(s0)
    54d4:	014787b3          	add	a5,a5,s4
    54d8:	0007a783          	lw	a5,0(a5)
    54dc:	0687a783          	lw	a5,104(a5)
    54e0:	0007a783          	lw	a5,0(a5)
    54e4:	0007a023          	sw	zero,0(a5)
    54e8:	02c42783          	lw	a5,44(s0)
    54ec:	014787b3          	add	a5,a5,s4
    54f0:	0007a783          	lw	a5,0(a5)
    54f4:	06c7a783          	lw	a5,108(a5)
    54f8:	0007a783          	lw	a5,0(a5)
    54fc:	0007a023          	sw	zero,0(a5)
    5500:	02c42783          	lw	a5,44(s0)
    5504:	014787b3          	add	a5,a5,s4
    5508:	0007a783          	lw	a5,0(a5)
    550c:	0707a783          	lw	a5,112(a5)
    5510:	0007a783          	lw	a5,0(a5)
    5514:	0007a023          	sw	zero,0(a5)
    5518:	02c42783          	lw	a5,44(s0)
    551c:	014787b3          	add	a5,a5,s4
    5520:	0007a783          	lw	a5,0(a5)
    5524:	0747a783          	lw	a5,116(a5)
    5528:	0007a783          	lw	a5,0(a5)
    552c:	0007a023          	sw	zero,0(a5)
    5530:	000065b7          	lui	a1,0x6
    5534:	00040513          	mv	a0,s0
    5538:	44058593          	addi	a1,a1,1088 # 6440 <__modsi3+0xbf8>
    553c:	c89fa0ef          	jal	1c4 <uart_send>
    5540:	000c8593          	mv	a1,s9
    5544:	00040513          	mv	a0,s0
    5548:	d99fb0ef          	jal	12e0 <show_cryptokeys_entry(csr_vp_t volatile*, int)>
    554c:	d21fe06f          	j	426c <main+0x11f0>
    5550:	000065b7          	lui	a1,0x6
    5554:	46458593          	addi	a1,a1,1124 # 6464 <__modsi3+0xc1c>
    5558:	06810513          	addi	a0,sp,104
    555c:	f6dfa0ef          	jal	4c8 <strcmp>
    5560:	04051463          	bnez	a0,55a8 <main+0x252c>
    5564:	000065b7          	lui	a1,0x6
    5568:	46c58593          	addi	a1,a1,1132 # 646c <__modsi3+0xc24>
    556c:	00040513          	mv	a0,s0
    5570:	c55fa0ef          	jal	1c4 <uart_send>
    5574:	00091e63          	bnez	s2,5590 <main+0x2514>
    5578:	000065b7          	lui	a1,0x6
    557c:	47858593          	addi	a1,a1,1144 # 6478 <__modsi3+0xc30>
    5580:	00040513          	mv	a0,s0
    5584:	c41fa0ef          	jal	1c4 <uart_send>
    5588:	00100913          	li	s2,1
    558c:	f70fe06f          	j	3cfc <main+0xc80>
    5590:	000065b7          	lui	a1,0x6
    5594:	48458593          	addi	a1,a1,1156 # 6484 <__modsi3+0xc3c>
    5598:	00040513          	mv	a0,s0
    559c:	c29fa0ef          	jal	1c4 <uart_send>
    55a0:	00000913          	li	s2,0
    55a4:	f58fe06f          	j	3cfc <main+0xc80>
    55a8:	000065b7          	lui	a1,0x6
    55ac:	49058593          	addi	a1,a1,1168 # 6490 <__modsi3+0xc48>
    55b0:	06810513          	addi	a0,sp,104
    55b4:	f15fa0ef          	jal	4c8 <strcmp>
    55b8:	00051663          	bnez	a0,55c4 <main+0x2548>
    55bc:	00000067          	jr	zero # 0 <_boot_crt>
    55c0:	f3cfe06f          	j	3cfc <main+0xc80>
    55c4:	000065b7          	lui	a1,0x6
    55c8:	49858593          	addi	a1,a1,1176 # 6498 <__modsi3+0xc50>
    55cc:	06810513          	addi	a0,sp,104
    55d0:	ef9fa0ef          	jal	4c8 <strcmp>
    55d4:	0e051863          	bnez	a0,56c4 <main+0x2648>
    55d8:	000065b7          	lui	a1,0x6
    55dc:	4a058593          	addi	a1,a1,1184 # 64a0 <__modsi3+0xc58>
    55e0:	00040513          	mv	a0,s0
    55e4:	be1fa0ef          	jal	1c4 <uart_send>
    55e8:	000065b7          	lui	a1,0x6
    55ec:	4b858593          	addi	a1,a1,1208 # 64b8 <__modsi3+0xc70>
    55f0:	00040513          	mv	a0,s0
    55f4:	bd1fa0ef          	jal	1c4 <uart_send>
    55f8:	000065b7          	lui	a1,0x6
    55fc:	4f458593          	addi	a1,a1,1268 # 64f4 <__modsi3+0xcac>
    5600:	00040513          	mv	a0,s0
    5604:	bc1fa0ef          	jal	1c4 <uart_send>
    5608:	000065b7          	lui	a1,0x6
    560c:	52c58593          	addi	a1,a1,1324 # 652c <__modsi3+0xce4>
    5610:	00040513          	mv	a0,s0
    5614:	bb1fa0ef          	jal	1c4 <uart_send>
    5618:	000065b7          	lui	a1,0x6
    561c:	56858593          	addi	a1,a1,1384 # 6568 <__modsi3+0xd20>
    5620:	00040513          	mv	a0,s0
    5624:	ba1fa0ef          	jal	1c4 <uart_send>
    5628:	000065b7          	lui	a1,0x6
    562c:	5a458593          	addi	a1,a1,1444 # 65a4 <__modsi3+0xd5c>
    5630:	00040513          	mv	a0,s0
    5634:	b91fa0ef          	jal	1c4 <uart_send>
    5638:	000065b7          	lui	a1,0x6
    563c:	5dc58593          	addi	a1,a1,1500 # 65dc <__modsi3+0xd94>
    5640:	00040513          	mv	a0,s0
    5644:	b81fa0ef          	jal	1c4 <uart_send>
    5648:	000065b7          	lui	a1,0x6
    564c:	61458593          	addi	a1,a1,1556 # 6614 <__modsi3+0xdcc>
    5650:	00040513          	mv	a0,s0
    5654:	b71fa0ef          	jal	1c4 <uart_send>
    5658:	000065b7          	lui	a1,0x6
    565c:	64c58593          	addi	a1,a1,1612 # 664c <__modsi3+0xe04>
    5660:	00040513          	mv	a0,s0
    5664:	b61fa0ef          	jal	1c4 <uart_send>
    5668:	000065b7          	lui	a1,0x6
    566c:	67c58593          	addi	a1,a1,1660 # 667c <__modsi3+0xe34>
    5670:	00040513          	mv	a0,s0
    5674:	b51fa0ef          	jal	1c4 <uart_send>
    5678:	000065b7          	lui	a1,0x6
    567c:	6b858593          	addi	a1,a1,1720 # 66b8 <__modsi3+0xe70>
    5680:	00040513          	mv	a0,s0
    5684:	b41fa0ef          	jal	1c4 <uart_send>
    5688:	000065b7          	lui	a1,0x6
    568c:	6ec58593          	addi	a1,a1,1772 # 66ec <__modsi3+0xea4>
    5690:	00040513          	mv	a0,s0
    5694:	b31fa0ef          	jal	1c4 <uart_send>
    5698:	000065b7          	lui	a1,0x6
    569c:	72c58593          	addi	a1,a1,1836 # 672c <__modsi3+0xee4>
    56a0:	00040513          	mv	a0,s0
    56a4:	b21fa0ef          	jal	1c4 <uart_send>
    56a8:	000065b7          	lui	a1,0x6
    56ac:	75c58593          	addi	a1,a1,1884 # 675c <__modsi3+0xf14>
    56b0:	00040513          	mv	a0,s0
    56b4:	b11fa0ef          	jal	1c4 <uart_send>
    56b8:	000065b7          	lui	a1,0x6
    56bc:	78c58593          	addi	a1,a1,1932 # 678c <__modsi3+0xf44>
    56c0:	f4cfe06f          	j	3e0c <main+0xd90>
    56c4:	00100793          	li	a5,1
    56c8:	00fa1463          	bne	s4,a5,56d0 <main+0x2654>
    56cc:	e30fe06f          	j	3cfc <main+0xc80>
    56d0:	000065b7          	lui	a1,0x6
    56d4:	7c058593          	addi	a1,a1,1984 # 67c0 <__modsi3+0xf78>
    56d8:	f34fe06f          	j	3e0c <main+0xd90>

000056dc <__ashldi3>:
    56dc:	02060063          	beqz	a2,56fc <__ashldi3+0x20>
    56e0:	02000793          	li	a5,32
    56e4:	40c787b3          	sub	a5,a5,a2
    56e8:	00f04c63          	bgtz	a5,5700 <__ashldi3+0x24>
    56ec:	fe060613          	addi	a2,a2,-32
    56f0:	00c515b3          	sll	a1,a0,a2
    56f4:	00000713          	li	a4,0
    56f8:	00070513          	mv	a0,a4
    56fc:	00008067          	ret
    5700:	00c51733          	sll	a4,a0,a2
    5704:	00c595b3          	sll	a1,a1,a2
    5708:	00f55533          	srl	a0,a0,a5
    570c:	00a5e5b3          	or	a1,a1,a0
    5710:	fe9ff06f          	j	56f8 <__ashldi3+0x1c>

00005714 <__mulsi3>:
    5714:	00050613          	mv	a2,a0
    5718:	00000513          	li	a0,0
    571c:	0015f693          	andi	a3,a1,1
    5720:	00068463          	beqz	a3,5728 <__mulsi3+0x14>
    5724:	00c50533          	add	a0,a0,a2
    5728:	0015d593          	srli	a1,a1,0x1
    572c:	00161613          	slli	a2,a2,0x1
    5730:	fe0596e3          	bnez	a1,571c <__mulsi3+0x8>
    5734:	00008067          	ret

00005738 <__muldi3>:
    5738:	00050e13          	mv	t3,a0
    573c:	ff010113          	addi	sp,sp,-16
    5740:	00068313          	mv	t1,a3
    5744:	00112623          	sw	ra,12(sp)
    5748:	00060513          	mv	a0,a2
    574c:	000e0893          	mv	a7,t3
    5750:	00060693          	mv	a3,a2
    5754:	00000713          	li	a4,0
    5758:	00000793          	li	a5,0
    575c:	00000813          	li	a6,0
    5760:	0016fe93          	andi	t4,a3,1
    5764:	00171613          	slli	a2,a4,0x1
    5768:	000e8a63          	beqz	t4,577c <__muldi3+0x44>
    576c:	01088833          	add	a6,a7,a6
    5770:	00e787b3          	add	a5,a5,a4
    5774:	01183733          	sltu	a4,a6,a7
    5778:	00f707b3          	add	a5,a4,a5
    577c:	01f8d713          	srli	a4,a7,0x1f
    5780:	0016d693          	srli	a3,a3,0x1
    5784:	00e66733          	or	a4,a2,a4
    5788:	00189893          	slli	a7,a7,0x1
    578c:	fc069ae3          	bnez	a3,5760 <__muldi3+0x28>
    5790:	00058663          	beqz	a1,579c <__muldi3+0x64>
    5794:	f81ff0ef          	jal	5714 <__mulsi3>
    5798:	00a787b3          	add	a5,a5,a0
    579c:	00030a63          	beqz	t1,57b0 <__muldi3+0x78>
    57a0:	000e0513          	mv	a0,t3
    57a4:	00030593          	mv	a1,t1
    57a8:	f6dff0ef          	jal	5714 <__mulsi3>
    57ac:	00f507b3          	add	a5,a0,a5
    57b0:	00c12083          	lw	ra,12(sp)
    57b4:	00080513          	mv	a0,a6
    57b8:	00078593          	mv	a1,a5
    57bc:	01010113          	addi	sp,sp,16
    57c0:	00008067          	ret

000057c4 <__divsi3>:
    57c4:	06054063          	bltz	a0,5824 <__umodsi3+0x10>
    57c8:	0605c663          	bltz	a1,5834 <__umodsi3+0x20>

000057cc <__hidden___udivsi3>:
    57cc:	00058613          	mv	a2,a1
    57d0:	00050593          	mv	a1,a0
    57d4:	fff00513          	li	a0,-1
    57d8:	02060c63          	beqz	a2,5810 <__hidden___udivsi3+0x44>
    57dc:	00100693          	li	a3,1
    57e0:	00b67a63          	bgeu	a2,a1,57f4 <__hidden___udivsi3+0x28>
    57e4:	00c05863          	blez	a2,57f4 <__hidden___udivsi3+0x28>
    57e8:	00161613          	slli	a2,a2,0x1
    57ec:	00169693          	slli	a3,a3,0x1
    57f0:	feb66ae3          	bltu	a2,a1,57e4 <__hidden___udivsi3+0x18>
    57f4:	00000513          	li	a0,0
    57f8:	00c5e663          	bltu	a1,a2,5804 <__hidden___udivsi3+0x38>
    57fc:	40c585b3          	sub	a1,a1,a2
    5800:	00d56533          	or	a0,a0,a3
    5804:	0016d693          	srli	a3,a3,0x1
    5808:	00165613          	srli	a2,a2,0x1
    580c:	fe0696e3          	bnez	a3,57f8 <__hidden___udivsi3+0x2c>
    5810:	00008067          	ret

00005814 <__umodsi3>:
    5814:	00008293          	mv	t0,ra
    5818:	fb5ff0ef          	jal	57cc <__hidden___udivsi3>
    581c:	00058513          	mv	a0,a1
    5820:	00028067          	jr	t0
    5824:	40a00533          	neg	a0,a0
    5828:	00b04863          	bgtz	a1,5838 <__umodsi3+0x24>
    582c:	40b005b3          	neg	a1,a1
    5830:	f9dff06f          	j	57cc <__hidden___udivsi3>
    5834:	40b005b3          	neg	a1,a1
    5838:	00008293          	mv	t0,ra
    583c:	f91ff0ef          	jal	57cc <__hidden___udivsi3>
    5840:	40a00533          	neg	a0,a0
    5844:	00028067          	jr	t0

00005848 <__modsi3>:
    5848:	00008293          	mv	t0,ra
    584c:	0005ca63          	bltz	a1,5860 <__modsi3+0x18>
    5850:	00054c63          	bltz	a0,5868 <__modsi3+0x20>
    5854:	f79ff0ef          	jal	57cc <__hidden___udivsi3>
    5858:	00058513          	mv	a0,a1
    585c:	00028067          	jr	t0
    5860:	40b005b3          	neg	a1,a1
    5864:	fe0558e3          	bgez	a0,5854 <__modsi3+0xc>
    5868:	40a00533          	neg	a0,a0
    586c:	f61ff0ef          	jal	57cc <__hidden___udivsi3>
    5870:	40b00533          	neg	a0,a1
    5874:	00028067          	jr	t0
    5878:	3130                	.insn	2, 0x3130
    587a:	3332                	.insn	2, 0x3332
    587c:	3534                	.insn	2, 0x3534
    587e:	3736                	.insn	2, 0x3736
    5880:	3938                	.insn	2, 0x3938
    5882:	4241                	.insn	2, 0x4241
    5884:	46454443          	.insn	4, 0x46454443
    5888:	0000                	.insn	2, 0x
    588a:	0000                	.insn	2, 0x
    588c:	2020                	.insn	2, 0x2020
    588e:	0028                	.insn	2, 0x0028
    5890:	2029                	.insn	2, 0x2029
    5892:	5049                	.insn	2, 0x5049
    5894:	203a                	.insn	2, 0x203a
    5896:	0000                	.insn	2, 0x
    5898:	202c                	.insn	2, 0x202c
    589a:	614d                	.insn	2, 0x614d
    589c:	203a6b73          	.insn	4, 0x203a6b73
    58a0:	0000                	.insn	2, 0x
    58a2:	0000                	.insn	2, 0x
    58a4:	202c                	.insn	2, 0x202c
    58a6:	6550                	.insn	2, 0x6550
    58a8:	7265                	.insn	2, 0x7265
    58aa:	6920                	.insn	2, 0x6920
    58ac:	646e                	.insn	2, 0x646e
    58ae:	7865                	.insn	2, 0x7865
    58b0:	203a                	.insn	2, 0x203a
    58b2:	0000                	.insn	2, 0x
    58b4:	202c                	.insn	2, 0x202c
    58b6:	6544                	.insn	2, 0x6544
    58b8:	6e697473          	.insn	4, 0x6e697473
    58bc:	7461                	.insn	2, 0x7461
    58be:	6f69                	.insn	2, 0x6f69
    58c0:	206e                	.insn	2, 0x206e
    58c2:	6e69                	.insn	2, 0x6e69
    58c4:	6574                	.insn	2, 0x6574
    58c6:	6672                	.insn	2, 0x6672
    58c8:	6361                	.insn	2, 0x6361
    58ca:	3a65                	.insn	2, 0x3a65
    58cc:	0020                	.insn	2, 0x0020
    58ce:	0000                	.insn	2, 0x
    58d0:	5b20                	.insn	2, 0x5b20
    58d2:	2e30                	.insn	2, 0x2e30
    58d4:	2e2e                	.insn	2, 0x2e2e
    58d6:	5d2e                	.insn	2, 0x5d2e
    58d8:	0000                	.insn	2, 0x
    58da:	0000                	.insn	2, 0x
    58dc:	5b20                	.insn	2, 0x5b20
    58de:	312e                	.insn	2, 0x312e
    58e0:	2e2e                	.insn	2, 0x2e2e
    58e2:	5d2e                	.insn	2, 0x5d2e
    58e4:	0000                	.insn	2, 0x
    58e6:	0000                	.insn	2, 0x
    58e8:	5b20                	.insn	2, 0x5b20
    58ea:	2e2e                	.insn	2, 0x2e2e
    58ec:	2e32                	.insn	2, 0x2e32
    58ee:	5d2e                	.insn	2, 0x5d2e
    58f0:	0000                	.insn	2, 0x
    58f2:	0000                	.insn	2, 0x
    58f4:	5b20                	.insn	2, 0x5b20
    58f6:	2e2e                	.insn	2, 0x2e2e
    58f8:	332e                	.insn	2, 0x332e
    58fa:	5d2e                	.insn	2, 0x5d2e
    58fc:	0000                	.insn	2, 0x
    58fe:	0000                	.insn	2, 0x
    5900:	5b20                	.insn	2, 0x5b20
    5902:	2e2e                	.insn	2, 0x2e2e
    5904:	2e2e                	.insn	2, 0x2e2e
    5906:	5d34                	.insn	2, 0x5d34
    5908:	0000                	.insn	2, 0x
    590a:	0000                	.insn	2, 0x
    590c:	5b20                	.insn	2, 0x5b20
    590e:	312e                	.insn	2, 0x312e
    5910:	332e                	.insn	2, 0x332e
    5912:	5d2e                	.insn	2, 0x5d2e
    5914:	0000                	.insn	2, 0x
    5916:	0000                	.insn	2, 0x
    5918:	5b20                	.insn	2, 0x5b20
    591a:	2e2e                	.insn	2, 0x2e2e
    591c:	2e32                	.insn	2, 0x2e32
    591e:	5d34                	.insn	2, 0x5d34
    5920:	0000                	.insn	2, 0x
    5922:	0000                	.insn	2, 0x
    5924:	5b20                	.insn	2, 0x5b20
    5926:	312e                	.insn	2, 0x312e
    5928:	3332                	.insn	2, 0x3332
    592a:	5d34                	.insn	2, 0x5d34
    592c:	0000                	.insn	2, 0x
    592e:	0000                	.insn	2, 0x
    5930:	2029                	.insn	2, 0x2029
    5932:	6f4c                	.insn	2, 0x6f4c
    5934:	206c6163          	bltu	s8,t1,5b36 <__modsi3+0x2ee>
    5938:	414d                	.insn	2, 0x414d
    593a:	00203a43          	.insn	4, 0x00203a43
    593e:	0000                	.insn	2, 0x
    5940:	202c                	.insn	2, 0x202c
    5942:	6f4c                	.insn	2, 0x6f4c
    5944:	206c6163          	bltu	s8,t1,5b46 <__modsi3+0x2fe>
    5948:	5049                	.insn	2, 0x5049
    594a:	203a                	.insn	2, 0x203a
    594c:	0000                	.insn	2, 0x
    594e:	0000                	.insn	2, 0x
    5950:	202c                	.insn	2, 0x202c
    5952:	6f4c                	.insn	2, 0x6f4c
    5954:	206c6163          	bltu	s8,t1,5b56 <__modsi3+0x30e>
    5958:	6f70                	.insn	2, 0x6f70
    595a:	7472                	.insn	2, 0x7472
    595c:	203a                	.insn	2, 0x203a
    595e:	0000                	.insn	2, 0x
    5960:	202c                	.insn	2, 0x202c
    5962:	6f4c                	.insn	2, 0x6f4c
    5964:	206c6163          	bltu	s8,t1,5b66 <__modsi3+0x31e>
    5968:	4449                	.insn	2, 0x4449
    596a:	203a                	.insn	2, 0x203a
    596c:	7830                	.insn	2, 0x7830
    596e:	0000                	.insn	2, 0x
    5970:	0a0d                	.insn	2, 0x0a0d
    5972:	2020                	.insn	2, 0x2020
    5974:	2020                	.insn	2, 0x2020
    5976:	6552                	.insn	2, 0x6552
    5978:	6f6d                	.insn	2, 0x6f6d
    597a:	6574                	.insn	2, 0x6574
    597c:	4d20                	.insn	2, 0x4d20
    597e:	4341                	.insn	2, 0x4341
    5980:	203a                	.insn	2, 0x203a
    5982:	0000                	.insn	2, 0x
    5984:	202c                	.insn	2, 0x202c
    5986:	6552                	.insn	2, 0x6552
    5988:	6f6d                	.insn	2, 0x6f6d
    598a:	6574                	.insn	2, 0x6574
    598c:	4920                	.insn	2, 0x4920
    598e:	3a50                	.insn	2, 0x3a50
    5990:	0020                	.insn	2, 0x0020
    5992:	0000                	.insn	2, 0x
    5994:	202c                	.insn	2, 0x202c
    5996:	6552                	.insn	2, 0x6552
    5998:	6f6d                	.insn	2, 0x6f6d
    599a:	6574                	.insn	2, 0x6574
    599c:	7020                	.insn	2, 0x7020
    599e:	3a74726f          	jal	tp,4d544 <_idata_start+0x46b78>
    59a2:	0020                	.insn	2, 0x0020
    59a4:	202c                	.insn	2, 0x202c
    59a6:	6552                	.insn	2, 0x6552
    59a8:	6f6d                	.insn	2, 0x6f6d
    59aa:	6574                	.insn	2, 0x6574
    59ac:	4920                	.insn	2, 0x4920
    59ae:	3a44                	.insn	2, 0x3a44
    59b0:	3020                	.insn	2, 0x3020
    59b2:	0078                	.insn	2, 0x0078
    59b4:	0a0d                	.insn	2, 0x0a0d
    59b6:	2020                	.insn	2, 0x2020
    59b8:	2020                	.insn	2, 0x2020
    59ba:	6e45                	.insn	2, 0x6e45
    59bc:	70797263          	bgeu	s2,t2,60c0 <__modsi3+0x878>
    59c0:	6974                	.insn	2, 0x6974
    59c2:	6b206e6f          	jal	t3,c074 <_idata_start+0x56a8>
    59c6:	7965                	.insn	2, 0x7965
    59c8:	203a                	.insn	2, 0x203a
    59ca:	7830                	.insn	2, 0x7830
    59cc:	0000                	.insn	2, 0x
    59ce:	0000                	.insn	2, 0x
    59d0:	0a0d                	.insn	2, 0x0a0d
    59d2:	2020                	.insn	2, 0x2020
    59d4:	2020                	.insn	2, 0x2020
    59d6:	6544                	.insn	2, 0x6544
    59d8:	70797263          	bgeu	s2,t2,60dc <__modsi3+0x894>
    59dc:	6974                	.insn	2, 0x6974
    59de:	6b206e6f          	jal	t3,c090 <_idata_start+0x56c4>
    59e2:	7965                	.insn	2, 0x7965
    59e4:	203a                	.insn	2, 0x203a
    59e6:	7830                	.insn	2, 0x7830
    59e8:	0000                	.insn	2, 0x
    59ea:	0000                	.insn	2, 0x
    59ec:	0a0d                	.insn	2, 0x0a0d
    59ee:	2020                	.insn	2, 0x2020
    59f0:	2020                	.insn	2, 0x2020
    59f2:	646e6553          	.insn	4, 0x646e6553
    59f6:	6320                	.insn	2, 0x6320
    59f8:	746e756f          	jal	a0,ed13e <_idata_start+0xe6772>
    59fc:	7265                	.insn	2, 0x7265
    59fe:	203a                	.insn	2, 0x203a
    5a00:	7830                	.insn	2, 0x7830
    5a02:	0000                	.insn	2, 0x
    5a04:	0a0d                	.insn	2, 0x0a0d
    5a06:	2020                	.insn	2, 0x2020
    5a08:	2020                	.insn	2, 0x2020
    5a0a:	6552                	.insn	2, 0x6552
    5a0c:	63207663          	bgeu	zero,s2,6038 <__modsi3+0x7f0>
    5a10:	746e756f          	jal	a0,ed156 <_idata_start+0xe678a>
    5a14:	7265                	.insn	2, 0x7265
    5a16:	203a                	.insn	2, 0x203a
    5a18:	7830                	.insn	2, 0x7830
    5a1a:	0000                	.insn	2, 0x
    5a1c:	654e                	.insn	2, 0x654e
    5a1e:	7774                	.insn	2, 0x7774
    5a20:	206b726f          	jal	tp,bcc26 <_idata_start+0xb625a>
    5a24:	666e6f63          	bltu	t3,t1,60a2 <__modsi3+0x85a>
    5a28:	6769                	.insn	2, 0x6769
    5a2a:	7275                	.insn	2, 0x7275
    5a2c:	7461                	.insn	2, 0x7461
    5a2e:	6f69                	.insn	2, 0x6f69
    5a30:	3a6e                	.insn	2, 0x3a6e
    5a32:	0a0d                	.insn	2, 0x0a0d
    5a34:	0000                	.insn	2, 0x
    5a36:	0000                	.insn	2, 0x
    5a38:	2020                	.insn	2, 0x2020
    5a3a:	5049                	.insn	2, 0x5049
    5a3c:	6120                	.insn	2, 0x6120
    5a3e:	6464                	.insn	2, 0x6464
    5a40:	6572                	.insn	2, 0x6572
    5a42:	203a7373          	.insn	4, 0x203a7373
    5a46:	2020                	.insn	2, 0x2020
    5a48:	2020                	.insn	2, 0x2020
    5a4a:	2020                	.insn	2, 0x2020
    5a4c:	0020                	.insn	2, 0x0020
    5a4e:	0000                	.insn	2, 0x
    5a50:	0a0d                	.insn	2, 0x0a0d
    5a52:	2020                	.insn	2, 0x2020
    5a54:	6e627553          	.insn	4, 0x6e627553
    5a58:	7465                	.insn	2, 0x7465
    5a5a:	6d20                	.insn	2, 0x6d20
    5a5c:	7361                	.insn	2, 0x7361
    5a5e:	20203a6b          	.insn	4, 0x20203a6b
    5a62:	2020                	.insn	2, 0x2020
    5a64:	2020                	.insn	2, 0x2020
    5a66:	0020                	.insn	2, 0x0020
    5a68:	0a0d                	.insn	2, 0x0a0d
    5a6a:	2020                	.insn	2, 0x2020
    5a6c:	414d                	.insn	2, 0x414d
    5a6e:	64612043          	.insn	4, 0x64612043
    5a72:	7264                	.insn	2, 0x7264
    5a74:	7365                	.insn	2, 0x7365
    5a76:	20203a73          	.insn	4, 0x20203a73
    5a7a:	2020                	.insn	2, 0x2020
    5a7c:	2020                	.insn	2, 0x2020
    5a7e:	0020                	.insn	2, 0x0020
    5a80:	0a0d                	.insn	2, 0x0a0d
    5a82:	2020                	.insn	2, 0x2020
    5a84:	6544                	.insn	2, 0x6544
    5a86:	6166                	.insn	2, 0x6166
    5a88:	6c75                	.insn	2, 0x6c75
    5a8a:	2074                	.insn	2, 0x2074
    5a8c:	65746167          	.insn	4, 0x65746167
    5a90:	3a796177          	.insn	4, 0x3a796177
    5a94:	2020                	.insn	2, 0x2020
    5a96:	0020                	.insn	2, 0x0020
    5a98:	0a0d                	.insn	2, 0x0a0d
    5a9a:	2020                	.insn	2, 0x2020
    5a9c:	6544                	.insn	2, 0x6544
    5a9e:	6166                	.insn	2, 0x6166
    5aa0:	6c75                	.insn	2, 0x6c75
    5aa2:	2074                	.insn	2, 0x2074
    5aa4:	6e69                	.insn	2, 0x6e69
    5aa6:	6574                	.insn	2, 0x6574
    5aa8:	6672                	.insn	2, 0x6672
    5aaa:	6361                	.insn	2, 0x6361
    5aac:	3a65                	.insn	2, 0x3a65
    5aae:	0020                	.insn	2, 0x0020
    5ab0:	6441                	.insn	2, 0x6441
    5ab2:	6964                	.insn	2, 0x6964
    5ab4:	6974                	.insn	2, 0x6974
    5ab6:	6c616e6f          	jal	t3,1c17c <_idata_start+0x157b0>
    5aba:	6120                	.insn	2, 0x6120
    5abc:	7475                	.insn	2, 0x7475
    5abe:	6568                	.insn	2, 0x6568
    5ac0:	746e                	.insn	2, 0x746e
    5ac2:	6369                	.insn	2, 0x6369
    5ac4:	7461                	.insn	2, 0x7461
    5ac6:	6465                	.insn	2, 0x6465
    5ac8:	6420                	.insn	2, 0x6420
    5aca:	7461                	.insn	2, 0x7461
    5acc:	0061                	.insn	2, 0x0061
    5ace:	0000                	.insn	2, 0x
    5ad0:	6548                	.insn	2, 0x6548
    5ad2:	6c6c                	.insn	2, 0x6c6c
    5ad4:	4843206f          	j	37f58 <_idata_start+0x3158c>
    5ad8:	4c49                	.insn	2, 0x4c49
    5ada:	4349                	.insn	2, 0x4349
    5adc:	6968                	.insn	2, 0x6968
    5ade:	7370                	.insn	2, 0x7370
    5ae0:	2d20                	.insn	2, 0x2d20
    5ae2:	5720                	.insn	2, 0x5720
    5ae4:	7269                	.insn	2, 0x7269
    5ae6:	6765                	.insn	2, 0x6765
    5ae8:	6175                	.insn	2, 0x6175
    5aea:	6472                	.insn	2, 0x6472
    5aec:	7420                	.insn	2, 0x7420
    5aee:	6165                	.insn	2, 0x6165
    5af0:	2c6d                	.insn	2, 0x2c6d
    5af2:	6c20                	.insn	2, 0x6c20
    5af4:	7465                	.insn	2, 0x7465
    5af6:	74207327          	.insn	4, 0x74207327
    5afa:	7365                	.insn	2, 0x7365
    5afc:	2074                	.insn	2, 0x2074
    5afe:	6874                	.insn	2, 0x6874
    5b00:	7369                	.insn	2, 0x7369
    5b02:	6120                	.insn	2, 0x6120
    5b04:	6165                	.insn	2, 0x6165
    5b06:	2164                	.insn	2, 0x2164
    5b08:	0000                	.insn	2, 0x
    5b0a:	0000                	.insn	2, 0x
    5b0c:	43616843          	.insn	4, 0x43616843
    5b10:	6168                	.insn	2, 0x6168
    5b12:	3032                	.insn	2, 0x3032
    5b14:	502d                	.insn	2, 0x502d
    5b16:	31796c6f          	jal	s8,9c62c <_idata_start+0x95c60>
    5b1a:	20353033          	.insn	4, 0x20353033
    5b1e:	6574                	.insn	2, 0x6574
    5b20:	70207473          	.insn	4, 0x70207473
    5b24:	7361                	.insn	2, 0x7361
    5b26:	21646573          	.insn	4, 0x21646573
    5b2a:	0a0d                	.insn	2, 0x0a0d
    5b2c:	0000                	.insn	2, 0x
    5b2e:	0000                	.insn	2, 0x
    5b30:	43616843          	.insn	4, 0x43616843
    5b34:	6168                	.insn	2, 0x6168
    5b36:	3032                	.insn	2, 0x3032
    5b38:	502d                	.insn	2, 0x502d
    5b3a:	31796c6f          	jal	s8,9c650 <_idata_start+0x95c84>
    5b3e:	20353033          	.insn	4, 0x20353033
    5b42:	6574                	.insn	2, 0x6574
    5b44:	66207473          	.insn	4, 0x66207473
    5b48:	6961                	.insn	2, 0x6961
    5b4a:	656c                	.insn	2, 0x656c
    5b4c:	2164                	.insn	2, 0x2164
    5b4e:	0a0d                	.insn	2, 0x0a0d
    5b50:	0000                	.insn	2, 0x
    5b52:	0000                	.insn	2, 0x
    5b54:	8180                	.insn	2, 0x8180
    5b56:	8382                	.insn	2, 0x8382
    5b58:	8584                	.insn	2, 0x8584
    5b5a:	8786                	.insn	2, 0x8786
    5b5c:	8988                	.insn	2, 0x8988
    5b5e:	8b8a                	.insn	2, 0x8b8a
    5b60:	8d8c                	.insn	2, 0x8d8c
    5b62:	8f8e                	.insn	2, 0x8f8e
    5b64:	9190                	.insn	2, 0x9190
    5b66:	9392                	.insn	2, 0x9392
    5b68:	9594                	.insn	2, 0x9594
    5b6a:	9796                	.insn	2, 0x9796
    5b6c:	9998                	.insn	2, 0x9998
    5b6e:	9b9a                	.insn	2, 0x9b9a
    5b70:	9d9c                	.insn	2, 0x9d9c
    5b72:	9f9e                	.insn	2, 0x9f9e
    5b74:	0000                	.insn	2, 0x
    5b76:	0000                	.insn	2, 0x
    5b78:	0a0d                	.insn	2, 0x0a0d
    5b7a:	6148                	.insn	2, 0x6148
    5b7c:	6472                	.insn	2, 0x6472
    5b7e:	65726177          	.insn	4, 0x65726177
    5b82:	4920                	.insn	2, 0x4920
    5b84:	2044                	.insn	2, 0x2044
    5b86:	696d                	.insn	2, 0x696d
    5b88:	74616d73          	.insn	4, 0x74616d73
    5b8c:	20216863          	bltu	sp,sp,5d9c <__modsi3+0x554>
    5b90:	6148                	.insn	2, 0x6148
    5b92:	746c                	.insn	2, 0x746c
    5b94:	6e69                	.insn	2, 0x6e69
    5b96:	2e2e2e67          	.insn	4, 0x2e2e2e67
    5b9a:	0a0d                	.insn	2, 0x0a0d
    5b9c:	0000                	.insn	2, 0x
    5b9e:	0000                	.insn	2, 0x
    5ba0:	0a0d                	.insn	2, 0x0a0d
    5ba2:	3d3d                	.insn	2, 0x3d3d
    5ba4:	3d3d                	.insn	2, 0x3d3d
    5ba6:	3d3d                	.insn	2, 0x3d3d
    5ba8:	3d3d                	.insn	2, 0x3d3d
    5baa:	3d3d                	.insn	2, 0x3d3d
    5bac:	3d3d                	.insn	2, 0x3d3d
    5bae:	3d3d                	.insn	2, 0x3d3d
    5bb0:	3d3d                	.insn	2, 0x3d3d
    5bb2:	3d3d                	.insn	2, 0x3d3d
    5bb4:	3d3d                	.insn	2, 0x3d3d
    5bb6:	3d3d                	.insn	2, 0x3d3d
    5bb8:	3d3d                	.insn	2, 0x3d3d
    5bba:	3d3d                	.insn	2, 0x3d3d
    5bbc:	3d3d                	.insn	2, 0x3d3d
    5bbe:	3d3d                	.insn	2, 0x3d3d
    5bc0:	3d3d                	.insn	2, 0x3d3d
    5bc2:	3d3d                	.insn	2, 0x3d3d
    5bc4:	3d3d                	.insn	2, 0x3d3d
    5bc6:	3d3d                	.insn	2, 0x3d3d
    5bc8:	3d3d                	.insn	2, 0x3d3d
    5bca:	3d3d                	.insn	2, 0x3d3d
    5bcc:	0a0d                	.insn	2, 0x0a0d
    5bce:	0000                	.insn	2, 0x
    5bd0:	2020                	.insn	2, 0x2020
    5bd2:	2020                	.insn	2, 0x2020
    5bd4:	2020                	.insn	2, 0x2020
    5bd6:	2020                	.insn	2, 0x2020
    5bd8:	2020                	.insn	2, 0x2020
    5bda:	65726957          	.insn	4, 0x65726957
    5bde:	72617547          	.insn	4, 0x72617547
    5be2:	2064                	.insn	2, 0x2064
    5be4:	5046                	.insn	2, 0x5046
    5be6:	76204147          	.insn	4, 0x76204147
    5bea:	0000                	.insn	2, 0x
    5bec:	0a0d                	.insn	2, 0x0a0d
    5bee:	2020                	.insn	2, 0x2020
    5bf0:	4320                	.insn	2, 0x4320
    5bf2:	7279706f          	j	9db18 <_idata_start+0x9714c>
    5bf6:	6769                	.insn	2, 0x6769
    5bf8:	7468                	.insn	2, 0x7468
    5bfa:	c220                	.insn	2, 0xc220
    5bfc:	20a9                	.insn	2, 0x20a9
    5bfe:	3032                	.insn	2, 0x3032
    5c00:	3432                	.insn	2, 0x3432
    5c02:	322d                	.insn	2, 0x322d
    5c04:	3230                	.insn	2, 0x3230
    5c06:	2036                	.insn	2, 0x2036
    5c08:	6c696843          	.insn	4, 0x6c696843
    5c0c:	2e69                	.insn	2, 0x2e69
    5c0e:	50494843          	.insn	4, 0x50494843
    5c12:	61622a53          	.insn	4, 0x61622a53
    5c16:	0a0d                	.insn	2, 0x0a0d
    5c18:	0000                	.insn	2, 0x
    5c1a:	0000                	.insn	2, 0x
    5c1c:	3d3d                	.insn	2, 0x3d3d
    5c1e:	3d3d                	.insn	2, 0x3d3d
    5c20:	3d3d                	.insn	2, 0x3d3d
    5c22:	3d3d                	.insn	2, 0x3d3d
    5c24:	3d3d                	.insn	2, 0x3d3d
    5c26:	3d3d                	.insn	2, 0x3d3d
    5c28:	3d3d                	.insn	2, 0x3d3d
    5c2a:	3d3d                	.insn	2, 0x3d3d
    5c2c:	3d3d                	.insn	2, 0x3d3d
    5c2e:	3d3d                	.insn	2, 0x3d3d
    5c30:	3d3d                	.insn	2, 0x3d3d
    5c32:	3d3d                	.insn	2, 0x3d3d
    5c34:	3d3d                	.insn	2, 0x3d3d
    5c36:	3d3d                	.insn	2, 0x3d3d
    5c38:	3d3d                	.insn	2, 0x3d3d
    5c3a:	3d3d                	.insn	2, 0x3d3d
    5c3c:	3d3d                	.insn	2, 0x3d3d
    5c3e:	3d3d                	.insn	2, 0x3d3d
    5c40:	3d3d                	.insn	2, 0x3d3d
    5c42:	3d3d                	.insn	2, 0x3d3d
    5c44:	3d3d                	.insn	2, 0x3d3d
    5c46:	0a0d                	.insn	2, 0x0a0d
    5c48:	0000                	.insn	2, 0x
    5c4a:	0000                	.insn	2, 0x
    5c4c:	6f42                	.insn	2, 0x6f42
    5c4e:	6e69746f          	jal	s0,9d334 <_idata_start+0x96968>
    5c52:	70752067          	.insn	4, 0x70752067
    5c56:	2e2e                	.insn	2, 0x2e2e
    5c58:	0d2e                	.insn	2, 0x0d2e
    5c5a:	000a                	.insn	2, 0x000a
    5c5c:	0a0d                	.insn	2, 0x0a0d
    5c5e:	7954                	.insn	2, 0x7954
    5c60:	6570                	.insn	2, 0x6570
    5c62:	2720                	.insn	2, 0x2720
    5c64:	6568                	.insn	2, 0x6568
    5c66:	706c                	.insn	2, 0x706c
    5c68:	6f742027          	.insn	4, 0x6f742027
    5c6c:	6420                	.insn	2, 0x6420
    5c6e:	7369                	.insn	2, 0x7369
    5c70:	6c70                	.insn	2, 0x6c70
    5c72:	7961                	.insn	2, 0x7961
    5c74:	6320                	.insn	2, 0x6320
    5c76:	616d6d6f          	jal	s10,dc28c <_idata_start+0xd58c0>
    5c7a:	646e                	.insn	2, 0x646e
    5c7c:	0a0d2e73          	.insn	4, 0x0a0d2e73
    5c80:	0000                	.insn	2, 0x
    5c82:	0000                	.insn	2, 0x
    5c84:	7728                	.insn	2, 0x7728
    5c86:	7269                	.insn	2, 0x7269
    5c88:	6765                	.insn	2, 0x6765
    5c8a:	6175                	.insn	2, 0x6175
    5c8c:	6472                	.insn	2, 0x6472
    5c8e:	662d                	.insn	2, 0x662d
    5c90:	6770                	.insn	2, 0x6770
    5c92:	2961                	.insn	2, 0x2961
    5c94:	00002023          	sw	zero,0(zero) # 0 <_boot_crt>
    5c98:	3c3c                	.insn	2, 0x3c3c
    5c9a:	4e20                	.insn	2, 0x4e20
    5c9c:	5445                	.insn	2, 0x5445
    5c9e:	505f 4f52 4f54      	.insn	6, 0x4f544f52505f
    5ca4:	555f 4b4e 4f4e      	.insn	6, 0x4f4e4b4e555f
    5caa:	203a4e57          	.insn	4, 0x203a4e57
    5cae:	0000                	.insn	2, 0x
    5cb0:	3c3c                	.insn	2, 0x3c3c
    5cb2:	4e20                	.insn	2, 0x4e20
    5cb4:	5445                	.insn	2, 0x5445
    5cb6:	505f 4f52 4f54      	.insn	6, 0x4f544f52505f
    5cbc:	415f 5052 203a      	.insn	6, 0x203a5052415f
    5cc2:	0000                	.insn	2, 0x
    5cc4:	3e3e                	.insn	2, 0x3e3e
    5cc6:	4e20                	.insn	2, 0x4e20
    5cc8:	5445                	.insn	2, 0x5445
    5cca:	505f 4f52 4f54      	.insn	6, 0x4f544f52505f
    5cd0:	415f 5052 203a      	.insn	6, 0x203a5052415f
    5cd6:	0000                	.insn	2, 0x
    5cd8:	3c3c                	.insn	2, 0x3c3c
    5cda:	4e20                	.insn	2, 0x4e20
    5cdc:	5445                	.insn	2, 0x5445
    5cde:	505f 4f52 4f54      	.insn	6, 0x4f544f52505f
    5ce4:	495f 4d43 3a50      	.insn	6, 0x3a504d43495f
    5cea:	0020                	.insn	2, 0x0020
    5cec:	3e3e                	.insn	2, 0x3e3e
    5cee:	4e20                	.insn	2, 0x4e20
    5cf0:	5445                	.insn	2, 0x5445
    5cf2:	505f 4f52 4f54      	.insn	6, 0x4f544f52505f
    5cf8:	495f 4d43 3a50      	.insn	6, 0x3a504d43495f
    5cfe:	0020                	.insn	2, 0x0020
    5d00:	3c3c                	.insn	2, 0x3c3c
    5d02:	4e20                	.insn	2, 0x4e20
    5d04:	5445                	.insn	2, 0x5445
    5d06:	505f 4f52 4f54      	.insn	6, 0x4f544f52505f
    5d0c:	555f 5044 203a      	.insn	6, 0x203a5044555f
    5d12:	0000                	.insn	2, 0x
    5d14:	6574                	.insn	2, 0x6574
    5d16:	63207473          	.insn	4, 0x63207473
    5d1a:	6168                	.insn	2, 0x6168
    5d1c:	32616863          	bltu	sp,t1,604c <__modsi3+0x804>
    5d20:	7030                	.insn	2, 0x7030
    5d22:	31796c6f          	jal	s8,9c838 <_idata_start+0x95e6c>
    5d26:	0a353033          	.insn	4, 0x0a353033
    5d2a:	0000                	.insn	2, 0x
    5d2c:	6574                	.insn	2, 0x6574
    5d2e:	62207473          	.insn	4, 0x62207473
    5d32:	616c                	.insn	2, 0x616c
    5d34:	7332656b          	.insn	4, 0x7332656b
    5d38:	000a                	.insn	2, 0x000a
    5d3a:	0000                	.insn	2, 0x
    5d3c:	6261                	.insn	2, 0x6261
    5d3e:	4c420063          	beq	tp,tp,61fe <__modsi3+0x9b6>
    5d42:	4b41                	.insn	2, 0x4b41
    5d44:	3245                	.insn	2, 0x3245
    5d46:	65742073          	.insn	4, 0x65742073
    5d4a:	70207473          	.insn	4, 0x70207473
    5d4e:	7361                	.insn	2, 0x7361
    5d50:	21646573          	.insn	4, 0x21646573
    5d54:	0a0d                	.insn	2, 0x0a0d
    5d56:	0000                	.insn	2, 0x
    5d58:	4c42                	.insn	2, 0x4c42
    5d5a:	4b41                	.insn	2, 0x4b41
    5d5c:	3245                	.insn	2, 0x3245
    5d5e:	65742073          	.insn	4, 0x65742073
    5d62:	66207473          	.insn	4, 0x66207473
    5d66:	6961                	.insn	2, 0x6961
    5d68:	656c                	.insn	2, 0x656c
    5d6a:	2164                	.insn	2, 0x2164
    5d6c:	0a0d                	.insn	2, 0x0a0d
    5d6e:	0000                	.insn	2, 0x
    5d70:	6574                	.insn	2, 0x6574
    5d72:	63207473          	.insn	4, 0x63207473
    5d76:	7275                	.insn	2, 0x7275
    5d78:	6576                	.insn	2, 0x6576
    5d7a:	3532                	.insn	2, 0x3532
    5d7c:	3135                	.insn	2, 0x3135
    5d7e:	0a39                	.insn	2, 0x0a39
    5d80:	0000                	.insn	2, 0x
    5d82:	0000                	.insn	2, 0x
    5d84:	2079654b          	.insn	4, 0x2079654b
    5d88:	7865                	.insn	2, 0x7865
    5d8a:	6e616863          	bltu	sp,t1,647a <__modsi3+0xc32>
    5d8e:	73206567          	.insn	4, 0x73206567
    5d92:	6375                	.insn	2, 0x6375
    5d94:	73736563          	bltu	t1,s7,64be <__modsi3+0xc76>
    5d98:	7566                	.insn	2, 0x7566
    5d9a:	216c                	.insn	2, 0x216c
    5d9c:	4120                	.insn	2, 0x4120
    5d9e:	696c                	.insn	2, 0x696c
    5da0:	61206563          	bltu	zero,s2,63aa <__modsi3+0xb62>
    5da4:	646e                	.insn	2, 0x646e
    5da6:	4220                	.insn	2, 0x4220
    5da8:	6820626f          	jal	tp,c42a <_idata_start+0x5a5e>
    5dac:	7661                	.insn	2, 0x7661
    5dae:	2065                	.insn	2, 0x2065
    5db0:	6874                	.insn	2, 0x6874
    5db2:	2065                	.insn	2, 0x2065
    5db4:	656d6173          	.insn	4, 0x656d6173
    5db8:	7320                	.insn	2, 0x7320
    5dba:	6168                	.insn	2, 0x6168
    5dbc:	6572                	.insn	2, 0x6572
    5dbe:	2064                	.insn	2, 0x2064
    5dc0:	72636573          	.insn	4, 0x72636573
    5dc4:	7465                	.insn	2, 0x7465
    5dc6:	0a0d                	.insn	2, 0x0a0d
    5dc8:	0000                	.insn	2, 0x
    5dca:	0000                	.insn	2, 0x
    5dcc:	2079654b          	.insn	4, 0x2079654b
    5dd0:	7865                	.insn	2, 0x7865
    5dd2:	6e616863          	bltu	sp,t1,64c2 <__modsi3+0xc7a>
    5dd6:	66206567          	.insn	4, 0x66206567
    5dda:	6961                	.insn	2, 0x6961
    5ddc:	656c                	.insn	2, 0x656c
    5dde:	2164                	.insn	2, 0x2164
    5de0:	5320                	.insn	2, 0x5320
    5de2:	6168                	.insn	2, 0x6168
    5de4:	6572                	.insn	2, 0x6572
    5de6:	2064                	.insn	2, 0x2064
    5de8:	72636573          	.insn	4, 0x72636573
    5dec:	7465                	.insn	2, 0x7465
    5dee:	6f642073          	.insn	4, 0x6f642073
    5df2:	276e                	.insn	2, 0x276e
    5df4:	2074                	.insn	2, 0x2074
    5df6:	616d                	.insn	2, 0x616d
    5df8:	6374                	.insn	2, 0x6374
    5dfa:	2e68                	.insn	2, 0x2e68
    5dfc:	0a0d                	.insn	2, 0x0a0d
    5dfe:	0000                	.insn	2, 0x
    5e00:	6574                	.insn	2, 0x6574
    5e02:	72207473          	.insn	4, 0x72207473
    5e06:	676e                	.insn	2, 0x676e
    5e08:	000a                	.insn	2, 0x000a
    5e0a:	0000                	.insn	2, 0x
    5e0c:	656e6547          	.insn	4, 0x656e6547
    5e10:	6172                	.insn	2, 0x6172
    5e12:	6974                	.insn	2, 0x6974
    5e14:	676e                	.insn	2, 0x676e
    5e16:	7220                	.insn	2, 0x7220
    5e18:	6e61                	.insn	2, 0x6e61
    5e1a:	6f64                	.insn	2, 0x6f64
    5e1c:	206d                	.insn	2, 0x206d
    5e1e:	62203233          	.insn	4, 0x62203233
    5e22:	7479                	.insn	2, 0x7479
    5e24:	7365                	.insn	2, 0x7365
    5e26:	203a                	.insn	2, 0x203a
    5e28:	0000                	.insn	2, 0x
    5e2a:	0000                	.insn	2, 0x
    5e2c:	656e6547          	.insn	4, 0x656e6547
    5e30:	6172                	.insn	2, 0x6172
    5e32:	6974                	.insn	2, 0x6974
    5e34:	676e                	.insn	2, 0x676e
    5e36:	7220                	.insn	2, 0x7220
    5e38:	6e61                	.insn	2, 0x6e61
    5e3a:	6f64                	.insn	2, 0x6f64
    5e3c:	206d                	.insn	2, 0x206d
    5e3e:	756e                	.insn	2, 0x756e
    5e40:	626d                	.insn	2, 0x626d
    5e42:	7265                	.insn	2, 0x7265
    5e44:	6220                	.insn	2, 0x6220
    5e46:	7465                	.insn	2, 0x7465
    5e48:	6e656577          	.insn	4, 0x6e656577
    5e4c:	3120                	.insn	2, 0x3120
    5e4e:	2030                	.insn	2, 0x2030
    5e50:	6e61                	.insn	2, 0x6e61
    5e52:	2064                	.insn	2, 0x2064
    5e54:	3031                	.insn	2, 0x3031
    5e56:	3030                	.insn	2, 0x3030
    5e58:	203a                	.insn	2, 0x203a
    5e5a:	0000                	.insn	2, 0x
    5e5c:	6574                	.insn	2, 0x6574
    5e5e:	74207473          	.insn	4, 0x74207473
    5e62:	6d69                	.insn	2, 0x6d69
    5e64:	7265                	.insn	2, 0x7265
    5e66:	000a                	.insn	2, 0x000a
    5e68:	002e                	.insn	2, 0x002e
    5e6a:	0000                	.insn	2, 0x
    5e6c:	0a0d                	.insn	2, 0x0a0d
    5e6e:	6554                	.insn	2, 0x6554
    5e70:	70207473          	.insn	4, 0x70207473
    5e74:	7361                	.insn	2, 0x7361
    5e76:	21646573          	.insn	4, 0x21646573
    5e7a:	0a0d                	.insn	2, 0x0a0d
    5e7c:	0000                	.insn	2, 0x
    5e7e:	0000                	.insn	2, 0x
    5e80:	776f6873          	.insn	4, 0x776f6873
    5e84:	6e20                	.insn	2, 0x6e20
    5e86:	7465                	.insn	2, 0x7465
    5e88:	6b726f77          	.insn	4, 0x6b726f77
    5e8c:	000a                	.insn	2, 0x000a
    5e8e:	0000                	.insn	2, 0x
    5e90:	666e6f63          	bltu	t3,t1,650e <__modsi3+0xcc6>
    5e94:	6769                	.insn	2, 0x6769
    5e96:	6e20                	.insn	2, 0x6e20
    5e98:	7465                	.insn	2, 0x7465
    5e9a:	6b726f77          	.insn	4, 0x6b726f77
    5e9e:	000a                	.insn	2, 0x000a
    5ea0:	6e45                	.insn	2, 0x6e45
    5ea2:	6574                	.insn	2, 0x6574
    5ea4:	2072                	.insn	2, 0x2072
    5ea6:	656e                	.insn	2, 0x656e
    5ea8:	656e2077          	.insn	4, 0x656e2077
    5eac:	7774                	.insn	2, 0x7774
    5eae:	206b726f          	jal	tp,bd0b4 <_idata_start+0xb66e8>
    5eb2:	666e6f63          	bltu	t3,t1,6530 <__modsi3+0xce8>
    5eb6:	6769                	.insn	2, 0x6769
    5eb8:	7275                	.insn	2, 0x7275
    5eba:	7461                	.insn	2, 0x7461
    5ebc:	6f69                	.insn	2, 0x6f69
    5ebe:	3a6e                	.insn	2, 0x3a6e
    5ec0:	0a0d                	.insn	2, 0x0a0d
    5ec2:	0000                	.insn	2, 0x
    5ec4:	2020                	.insn	2, 0x2020
    5ec6:	5049                	.insn	2, 0x5049
    5ec8:	6120                	.insn	2, 0x6120
    5eca:	6464                	.insn	2, 0x6464
    5ecc:	6572                	.insn	2, 0x6572
    5ece:	5b207373          	.insn	4, 0x5b207373
    5ed2:	0000                	.insn	2, 0x
    5ed4:	2020                	.insn	2, 0x2020
    5ed6:	6e627553          	.insn	4, 0x6e627553
    5eda:	7465                	.insn	2, 0x7465
    5edc:	6d20                	.insn	2, 0x6d20
    5ede:	7361                	.insn	2, 0x7361
    5ee0:	005b206b          	.insn	4, 0x005b206b
    5ee4:	2020                	.insn	2, 0x2020
    5ee6:	656e6547          	.insn	4, 0x656e6547
    5eea:	6172                	.insn	2, 0x6172
    5eec:	6574                	.insn	2, 0x6574
    5eee:	6e20                	.insn	2, 0x6e20
    5ef0:	7765                	.insn	2, 0x7765
    5ef2:	4d20                	.insn	2, 0x4d20
    5ef4:	4341                	.insn	2, 0x4341
    5ef6:	6120                	.insn	2, 0x6120
    5ef8:	6464                	.insn	2, 0x6464
    5efa:	6572                	.insn	2, 0x6572
    5efc:	203f7373          	.insn	4, 0x203f7373
    5f00:	7928                	.insn	2, 0x7928
    5f02:	20296e2f          	.insn	4, 0x20296e2f
    5f06:	3a5d6e5b          	.insn	4, 0x3a5d6e5b
    5f0a:	0020                	.insn	2, 0x0020
    5f0c:	2020                	.insn	2, 0x2020
    5f0e:	6544                	.insn	2, 0x6544
    5f10:	6166                	.insn	2, 0x6166
    5f12:	6c75                	.insn	2, 0x6c75
    5f14:	2074                	.insn	2, 0x2074
    5f16:	65746167          	.insn	4, 0x65746167
    5f1a:	20796177          	.insn	4, 0x20796177
    5f1e:	2020005b          	.insn	4, 0x2020005b
    5f22:	6544                	.insn	2, 0x6544
    5f24:	6166                	.insn	2, 0x6166
    5f26:	6c75                	.insn	2, 0x6c75
    5f28:	2074                	.insn	2, 0x2074
    5f2a:	6e69                	.insn	2, 0x6e69
    5f2c:	6574                	.insn	2, 0x6574
    5f2e:	6672                	.insn	2, 0x6672
    5f30:	6361                	.insn	2, 0x6361
    5f32:	2065                	.insn	2, 0x2065
    5f34:	3028                	.insn	2, 0x3028
    5f36:	372d                	.insn	2, 0x372d
    5f38:	2029                	.insn	2, 0x2029
    5f3a:	654e005b          	.insn	4, 0x654e005b
    5f3e:	7774                	.insn	2, 0x7774
    5f40:	206b726f          	jal	tp,bd146 <_idata_start+0xb677a>
    5f44:	666e6f63          	bltu	t3,t1,65c2 <__modsi3+0xd7a>
    5f48:	6769                	.insn	2, 0x6769
    5f4a:	7275                	.insn	2, 0x7275
    5f4c:	7461                	.insn	2, 0x7461
    5f4e:	6f69                	.insn	2, 0x6f69
    5f50:	206e                	.insn	2, 0x206e
    5f52:	7075                	.insn	2, 0x7075
    5f54:	6164                	.insn	2, 0x6164
    5f56:	6574                	.insn	2, 0x6574
    5f58:	2e64                	.insn	2, 0x2e64
    5f5a:	0a0d                	.insn	2, 0x0a0d
    5f5c:	0000                	.insn	2, 0x
    5f5e:	0000                	.insn	2, 0x
    5f60:	776f6873          	.insn	4, 0x776f6873
    5f64:	7220                	.insn	2, 0x7220
    5f66:	6574756f          	jal	a0,4ddbc <_idata_start+0x473f0>
    5f6a:	00000a73          	.insn	4, 0x0a73
    5f6e:	0000                	.insn	2, 0x
    5f70:	6f52                	.insn	2, 0x6f52
    5f72:	7475                	.insn	2, 0x7475
    5f74:	6e69                	.insn	2, 0x6e69
    5f76:	61742067          	.insn	4, 0x61742067
    5f7a:	6c62                	.insn	2, 0x6c62
    5f7c:	3a65                	.insn	2, 0x3a65
    5f7e:	0a0d                	.insn	2, 0x0a0d
    5f80:	0000                	.insn	2, 0x
    5f82:	0000                	.insn	2, 0x
    5f84:	666e6f63          	bltu	t3,t1,6602 <__modsi3+0xdba>
    5f88:	6769                	.insn	2, 0x6769
    5f8a:	7220                	.insn	2, 0x7220
    5f8c:	6574756f          	jal	a0,4dde2 <_idata_start+0x47416>
    5f90:	00000a73          	.insn	4, 0x0a73
    5f94:	6e45                	.insn	2, 0x6e45
    5f96:	6574                	.insn	2, 0x6574
    5f98:	2072                	.insn	2, 0x2072
    5f9a:	656e                	.insn	2, 0x656e
    5f9c:	6f722077          	.insn	4, 0x6f722077
    5fa0:	7475                	.insn	2, 0x7475
    5fa2:	6e69                	.insn	2, 0x6e69
    5fa4:	61742067          	.insn	4, 0x61742067
    5fa8:	6c62                	.insn	2, 0x6c62
    5faa:	2065                	.insn	2, 0x2065
    5fac:	6e65                	.insn	2, 0x6e65
    5fae:	7274                	.insn	2, 0x7274
    5fb0:	3a79                	.insn	2, 0x3a79
    5fb2:	0a0d                	.insn	2, 0x0a0d
    5fb4:	0000                	.insn	2, 0x
    5fb6:	0000                	.insn	2, 0x
    5fb8:	2020                	.insn	2, 0x2020
    5fba:	6e45                	.insn	2, 0x6e45
    5fbc:	7274                	.insn	2, 0x7274
    5fbe:	2079                	.insn	2, 0x2079
    5fc0:	6e69                	.insn	2, 0x6e69
    5fc2:	6564                	.insn	2, 0x6564
    5fc4:	2078                	.insn	2, 0x2078
    5fc6:	3028                	.insn	2, 0x3028
    5fc8:	362d                	.insn	2, 0x362d
    5fca:	5b202933          	.insn	4, 0x5b202933
    5fce:	5d30                	.insn	2, 0x5d30
    5fd0:	203a                	.insn	2, 0x203a
    5fd2:	0000                	.insn	2, 0x
    5fd4:	2020                	.insn	2, 0x2020
    5fd6:	6544                	.insn	2, 0x6544
    5fd8:	6e697473          	.insn	4, 0x6e697473
    5fdc:	7461                	.insn	2, 0x7461
    5fde:	6f69                	.insn	2, 0x6f69
    5fe0:	206e                	.insn	2, 0x206e
    5fe2:	5049                	.insn	2, 0x5049
    5fe4:	6120                	.insn	2, 0x6120
    5fe6:	6464                	.insn	2, 0x6464
    5fe8:	6572                	.insn	2, 0x6572
    5fea:	5b207373          	.insn	4, 0x5b207373
    5fee:	0000                	.insn	2, 0x
    5ff0:	2020                	.insn	2, 0x2020
    5ff2:	6550                	.insn	2, 0x6550
    5ff4:	7265                	.insn	2, 0x7265
    5ff6:	6920                	.insn	2, 0x6920
    5ff8:	646e                	.insn	2, 0x646e
    5ffa:	7865                	.insn	2, 0x7865
    5ffc:	2820                	.insn	2, 0x2820
    5ffe:	2d30                	.insn	2, 0x2d30
    6000:	3336                	.insn	2, 0x3336
    6002:	2029                	.insn	2, 0x2029
    6004:	0000005b          	.insn	4, 0x005b
    6008:	2020                	.insn	2, 0x2020
    600a:	6544                	.insn	2, 0x6544
    600c:	6e697473          	.insn	4, 0x6e697473
    6010:	7461                	.insn	2, 0x7461
    6012:	6f69                	.insn	2, 0x6f69
    6014:	206e                	.insn	2, 0x206e
    6016:	6e69                	.insn	2, 0x6e69
    6018:	6574                	.insn	2, 0x6574
    601a:	6672                	.insn	2, 0x6672
    601c:	6361                	.insn	2, 0x6361
    601e:	2065                	.insn	2, 0x2065
    6020:	3028                	.insn	2, 0x3028
    6022:	372d                	.insn	2, 0x372d
    6024:	2029                	.insn	2, 0x2029
    6026:	6f52005b          	.insn	4, 0x6f52005b
    602a:	7475                	.insn	2, 0x7475
    602c:	6e69                	.insn	2, 0x6e69
    602e:	61742067          	.insn	4, 0x61742067
    6032:	6c62                	.insn	2, 0x6c62
    6034:	2065                	.insn	2, 0x2065
    6036:	6e65                	.insn	2, 0x6e65
    6038:	7274                	.insn	2, 0x7274
    603a:	2079                	.insn	2, 0x2079
    603c:	7075                	.insn	2, 0x7075
    603e:	6164                	.insn	2, 0x6164
    6040:	6574                	.insn	2, 0x6574
    6042:	2e64                	.insn	2, 0x2e64
    6044:	0a0d                	.insn	2, 0x0a0d
    6046:	0000                	.insn	2, 0x
    6048:	776f6873          	.insn	4, 0x776f6873
    604c:	6320                	.insn	2, 0x6320
    604e:	7972                	.insn	2, 0x7972
    6050:	7470                	.insn	2, 0x7470
    6052:	79656b6f          	jal	s6,5c7e8 <_idata_start+0x55e1c>
    6056:	00000a73          	.insn	4, 0x0a73
    605a:	0000                	.insn	2, 0x
    605c:	70797243          	.insn	4, 0x70797243
    6060:	6f74                	.insn	2, 0x6f74
    6062:	2079656b          	.insn	4, 0x2079656b
    6066:	6174                	.insn	2, 0x6174
    6068:	6c62                	.insn	2, 0x6c62
    606a:	3a65                	.insn	2, 0x3a65
    606c:	0a0d                	.insn	2, 0x0a0d
    606e:	0000                	.insn	2, 0x
    6070:	666e6f63          	bltu	t3,t1,66ee <__modsi3+0xea6>
    6074:	6769                	.insn	2, 0x6769
    6076:	6320                	.insn	2, 0x6320
    6078:	7972                	.insn	2, 0x7972
    607a:	7470                	.insn	2, 0x7470
    607c:	79656b6f          	jal	s6,5c812 <_idata_start+0x55e46>
    6080:	00000a73          	.insn	4, 0x0a73
    6084:	6e45                	.insn	2, 0x6e45
    6086:	6574                	.insn	2, 0x6574
    6088:	2072                	.insn	2, 0x2072
    608a:	656e                	.insn	2, 0x656e
    608c:	72632077          	.insn	4, 0x72632077
    6090:	7079                	.insn	2, 0x7079
    6092:	6f74                	.insn	2, 0x6f74
    6094:	2079656b          	.insn	4, 0x2079656b
    6098:	6174                	.insn	2, 0x6174
    609a:	6c62                	.insn	2, 0x6c62
    609c:	2065                	.insn	2, 0x2065
    609e:	6e65                	.insn	2, 0x6e65
    60a0:	7274                	.insn	2, 0x7274
    60a2:	3a79                	.insn	2, 0x3a79
    60a4:	0a0d                	.insn	2, 0x0a0d
    60a6:	0000                	.insn	2, 0x
    60a8:	2020                	.insn	2, 0x2020
    60aa:	6e45                	.insn	2, 0x6e45
    60ac:	7274                	.insn	2, 0x7274
    60ae:	2079                	.insn	2, 0x2079
    60b0:	6e69                	.insn	2, 0x6e69
    60b2:	6564                	.insn	2, 0x6564
    60b4:	2078                	.insn	2, 0x2078
    60b6:	3128                	.insn	2, 0x3128
    60b8:	362d                	.insn	2, 0x362d
    60ba:	5b202933          	.insn	4, 0x5b202933
    60be:	5d31                	.insn	2, 0x5d31
    60c0:	203a                	.insn	2, 0x203a
    60c2:	0000                	.insn	2, 0x
    60c4:	2020                	.insn	2, 0x2020
    60c6:	6f4c                	.insn	2, 0x6f4c
    60c8:	206c6163          	bltu	s8,t1,62ca <__modsi3+0xa82>
    60cc:	414d                	.insn	2, 0x414d
    60ce:	64612043          	.insn	4, 0x64612043
    60d2:	7264                	.insn	2, 0x7264
    60d4:	7365                	.insn	2, 0x7365
    60d6:	005b2073          	.insn	4, 0x005b2073
    60da:	0000                	.insn	2, 0x
    60dc:	2020                	.insn	2, 0x2020
    60de:	6f4c                	.insn	2, 0x6f4c
    60e0:	206c6163          	bltu	s8,t1,62e2 <__modsi3+0xa9a>
    60e4:	5049                	.insn	2, 0x5049
    60e6:	6120                	.insn	2, 0x6120
    60e8:	6464                	.insn	2, 0x6464
    60ea:	6572                	.insn	2, 0x6572
    60ec:	5b207373          	.insn	4, 0x5b207373
    60f0:	0000                	.insn	2, 0x
    60f2:	0000                	.insn	2, 0x
    60f4:	2020                	.insn	2, 0x2020
    60f6:	6f4c                	.insn	2, 0x6f4c
    60f8:	206c6163          	bltu	s8,t1,62fa <__modsi3+0xab2>
    60fc:	6f70                	.insn	2, 0x6f70
    60fe:	7472                	.insn	2, 0x7472
    6100:	2820                	.insn	2, 0x2820
    6102:	2d30                	.insn	2, 0x2d30
    6104:	3536                	.insn	2, 0x3536
    6106:	3335                	.insn	2, 0x3335
    6108:	2935                	.insn	2, 0x2935
    610a:	5b20                	.insn	2, 0x5b20
    610c:	0000                	.insn	2, 0x
    610e:	0000                	.insn	2, 0x
    6110:	2020                	.insn	2, 0x2020
    6112:	6f4c                	.insn	2, 0x6f4c
    6114:	206c6163          	bltu	s8,t1,6316 <__modsi3+0xace>
    6118:	4449                	.insn	2, 0x4449
    611a:	2820                	.insn	2, 0x2820
    611c:	2038                	.insn	2, 0x2038
    611e:	6568                	.insn	2, 0x6568
    6120:	2078                	.insn	2, 0x2078
    6122:	6964                	.insn	2, 0x6964
    6124:	73746967          	.insn	4, 0x73746967
    6128:	2029                	.insn	2, 0x2029
    612a:	2020005b          	.insn	4, 0x2020005b
    612e:	6552                	.insn	2, 0x6552
    6130:	6f6d                	.insn	2, 0x6f6d
    6132:	6574                	.insn	2, 0x6574
    6134:	4d20                	.insn	2, 0x4d20
    6136:	4341                	.insn	2, 0x4341
    6138:	6120                	.insn	2, 0x6120
    613a:	6464                	.insn	2, 0x6464
    613c:	6572                	.insn	2, 0x6572
    613e:	5b207373          	.insn	4, 0x5b207373
    6142:	0000                	.insn	2, 0x
    6144:	2020                	.insn	2, 0x2020
    6146:	6552                	.insn	2, 0x6552
    6148:	6f6d                	.insn	2, 0x6f6d
    614a:	6574                	.insn	2, 0x6574
    614c:	4920                	.insn	2, 0x4920
    614e:	2050                	.insn	2, 0x2050
    6150:	6461                	.insn	2, 0x6461
    6152:	7264                	.insn	2, 0x7264
    6154:	7365                	.insn	2, 0x7365
    6156:	005b2073          	.insn	4, 0x005b2073
    615a:	0000                	.insn	2, 0x
    615c:	2020                	.insn	2, 0x2020
    615e:	6552                	.insn	2, 0x6552
    6160:	6f6d                	.insn	2, 0x6f6d
    6162:	6574                	.insn	2, 0x6574
    6164:	7020                	.insn	2, 0x7020
    6166:	2074726f          	jal	tp,4db6c <_idata_start+0x471a0>
    616a:	3028                	.insn	2, 0x3028
    616c:	362d                	.insn	2, 0x362d
    616e:	3535                	.insn	2, 0x3535
    6170:	20293533          	.insn	4, 0x20293533
    6174:	0000005b          	.insn	4, 0x005b
    6178:	2020                	.insn	2, 0x2020
    617a:	6552                	.insn	2, 0x6552
    617c:	6f6d                	.insn	2, 0x6f6d
    617e:	6574                	.insn	2, 0x6574
    6180:	4920                	.insn	2, 0x4920
    6182:	2044                	.insn	2, 0x2044
    6184:	3828                	.insn	2, 0x3828
    6186:	6820                	.insn	2, 0x6820
    6188:	7865                	.insn	2, 0x7865
    618a:	6420                	.insn	2, 0x6420
    618c:	6769                	.insn	2, 0x6769
    618e:	7469                	.insn	2, 0x7469
    6190:	5b202973          	.insn	4, 0x5b202973
    6194:	0000                	.insn	2, 0x
    6196:	0000                	.insn	2, 0x
    6198:	2020                	.insn	2, 0x2020
    619a:	6e45                	.insn	2, 0x6e45
    619c:	70797263          	bgeu	s2,t2,68a0 <__modsi3+0x1058>
    61a0:	6974                	.insn	2, 0x6974
    61a2:	6b206e6f          	jal	t3,c854 <_idata_start+0x5e88>
    61a6:	7965                	.insn	2, 0x7965
    61a8:	2820                	.insn	2, 0x2820
    61aa:	7331                	.insn	2, 0x7331
    61ac:	2074                	.insn	2, 0x2074
    61ae:	2038                	.insn	2, 0x2038
    61b0:	6568                	.insn	2, 0x6568
    61b2:	2078                	.insn	2, 0x2078
    61b4:	6964                	.insn	2, 0x6964
    61b6:	73746967          	.insn	4, 0x73746967
    61ba:	2029                	.insn	2, 0x2029
    61bc:	0000005b          	.insn	4, 0x005b
    61c0:	2020                	.insn	2, 0x2020
    61c2:	6e45                	.insn	2, 0x6e45
    61c4:	70797263          	bgeu	s2,t2,68c8 <blake2s_iv+0x10>
    61c8:	6974                	.insn	2, 0x6974
    61ca:	6b206e6f          	jal	t3,c87c <_idata_start+0x5eb0>
    61ce:	7965                	.insn	2, 0x7965
    61d0:	2820                	.insn	2, 0x2820
    61d2:	6e32                	.insn	2, 0x6e32
    61d4:	2064                	.insn	2, 0x2064
    61d6:	2038                	.insn	2, 0x2038
    61d8:	6568                	.insn	2, 0x6568
    61da:	2078                	.insn	2, 0x2078
    61dc:	6964                	.insn	2, 0x6964
    61de:	73746967          	.insn	4, 0x73746967
    61e2:	2029                	.insn	2, 0x2029
    61e4:	0000005b          	.insn	4, 0x005b
    61e8:	2020                	.insn	2, 0x2020
    61ea:	6e45                	.insn	2, 0x6e45
    61ec:	70797263          	bgeu	s2,t2,68f0 <_121665+0x18>
    61f0:	6974                	.insn	2, 0x6974
    61f2:	6b206e6f          	jal	t3,c8a4 <_idata_start+0x5ed8>
    61f6:	7965                	.insn	2, 0x7965
    61f8:	2820                	.insn	2, 0x2820
    61fa:	20647233          	.insn	4, 0x20647233
    61fe:	2038                	.insn	2, 0x2038
    6200:	6568                	.insn	2, 0x6568
    6202:	2078                	.insn	2, 0x2078
    6204:	6964                	.insn	2, 0x6964
    6206:	73746967          	.insn	4, 0x73746967
    620a:	2029                	.insn	2, 0x2029
    620c:	0000005b          	.insn	4, 0x005b
    6210:	2020                	.insn	2, 0x2020
    6212:	6e45                	.insn	2, 0x6e45
    6214:	70797263          	bgeu	s2,t2,6918 <_121665+0x40>
    6218:	6974                	.insn	2, 0x6974
    621a:	6b206e6f          	jal	t3,c8cc <_idata_start+0x5f00>
    621e:	7965                	.insn	2, 0x7965
    6220:	2820                	.insn	2, 0x2820
    6222:	7434                	.insn	2, 0x7434
    6224:	2068                	.insn	2, 0x2068
    6226:	2038                	.insn	2, 0x2038
    6228:	6568                	.insn	2, 0x6568
    622a:	2078                	.insn	2, 0x2078
    622c:	6964                	.insn	2, 0x6964
    622e:	73746967          	.insn	4, 0x73746967
    6232:	2029                	.insn	2, 0x2029
    6234:	0000005b          	.insn	4, 0x005b
    6238:	2020                	.insn	2, 0x2020
    623a:	6e45                	.insn	2, 0x6e45
    623c:	70797263          	bgeu	s2,t2,6940 <_121665+0x68>
    6240:	6974                	.insn	2, 0x6974
    6242:	6b206e6f          	jal	t3,c8f4 <_idata_start+0x5f28>
    6246:	7965                	.insn	2, 0x7965
    6248:	2820                	.insn	2, 0x2820
    624a:	7435                	.insn	2, 0x7435
    624c:	2068                	.insn	2, 0x2068
    624e:	2038                	.insn	2, 0x2038
    6250:	6568                	.insn	2, 0x6568
    6252:	2078                	.insn	2, 0x2078
    6254:	6964                	.insn	2, 0x6964
    6256:	73746967          	.insn	4, 0x73746967
    625a:	2029                	.insn	2, 0x2029
    625c:	0000005b          	.insn	4, 0x005b
    6260:	2020                	.insn	2, 0x2020
    6262:	6e45                	.insn	2, 0x6e45
    6264:	70797263          	bgeu	s2,t2,6968 <_121665+0x90>
    6268:	6974                	.insn	2, 0x6974
    626a:	6b206e6f          	jal	t3,c91c <_idata_start+0x5f50>
    626e:	7965                	.insn	2, 0x7965
    6270:	2820                	.insn	2, 0x2820
    6272:	7436                	.insn	2, 0x7436
    6274:	2068                	.insn	2, 0x2068
    6276:	2038                	.insn	2, 0x2038
    6278:	6568                	.insn	2, 0x6568
    627a:	2078                	.insn	2, 0x2078
    627c:	6964                	.insn	2, 0x6964
    627e:	73746967          	.insn	4, 0x73746967
    6282:	2029                	.insn	2, 0x2029
    6284:	0000005b          	.insn	4, 0x005b
    6288:	2020                	.insn	2, 0x2020
    628a:	6e45                	.insn	2, 0x6e45
    628c:	70797263          	bgeu	s2,t2,6990 <_121665+0xb8>
    6290:	6974                	.insn	2, 0x6974
    6292:	6b206e6f          	jal	t3,c944 <_idata_start+0x5f78>
    6296:	7965                	.insn	2, 0x7965
    6298:	2820                	.insn	2, 0x2820
    629a:	20687437          	lui	s0,0x20687
    629e:	2038                	.insn	2, 0x2038
    62a0:	6568                	.insn	2, 0x6568
    62a2:	2078                	.insn	2, 0x2078
    62a4:	6964                	.insn	2, 0x6964
    62a6:	73746967          	.insn	4, 0x73746967
    62aa:	2029                	.insn	2, 0x2029
    62ac:	0000005b          	.insn	4, 0x005b
    62b0:	2020                	.insn	2, 0x2020
    62b2:	6e45                	.insn	2, 0x6e45
    62b4:	70797263          	bgeu	s2,t2,69b8 <_9+0xc>
    62b8:	6974                	.insn	2, 0x6974
    62ba:	6b206e6f          	jal	t3,c96c <_idata_start+0x5fa0>
    62be:	7965                	.insn	2, 0x7965
    62c0:	2820                	.insn	2, 0x2820
    62c2:	7438                	.insn	2, 0x7438
    62c4:	2068                	.insn	2, 0x2068
    62c6:	2038                	.insn	2, 0x2038
    62c8:	6568                	.insn	2, 0x6568
    62ca:	2078                	.insn	2, 0x2078
    62cc:	6964                	.insn	2, 0x6964
    62ce:	73746967          	.insn	4, 0x73746967
    62d2:	2029                	.insn	2, 0x2029
    62d4:	0000005b          	.insn	4, 0x005b
    62d8:	2020                	.insn	2, 0x2020
    62da:	6544                	.insn	2, 0x6544
    62dc:	70797263          	bgeu	s2,t2,69e0 <_idata_start+0x14>
    62e0:	6974                	.insn	2, 0x6974
    62e2:	6b206e6f          	jal	t3,c994 <_idata_start+0x5fc8>
    62e6:	7965                	.insn	2, 0x7965
    62e8:	2820                	.insn	2, 0x2820
    62ea:	7331                	.insn	2, 0x7331
    62ec:	2074                	.insn	2, 0x2074
    62ee:	2038                	.insn	2, 0x2038
    62f0:	6568                	.insn	2, 0x6568
    62f2:	2078                	.insn	2, 0x2078
    62f4:	6964                	.insn	2, 0x6964
    62f6:	73746967          	.insn	4, 0x73746967
    62fa:	2029                	.insn	2, 0x2029
    62fc:	0000005b          	.insn	4, 0x005b
    6300:	2020                	.insn	2, 0x2020
    6302:	6544                	.insn	2, 0x6544
    6304:	70797263          	bgeu	s2,t2,6a08 <_idata_start+0x3c>
    6308:	6974                	.insn	2, 0x6974
    630a:	6b206e6f          	jal	t3,c9bc <_idata_start+0x5ff0>
    630e:	7965                	.insn	2, 0x7965
    6310:	2820                	.insn	2, 0x2820
    6312:	6e32                	.insn	2, 0x6e32
    6314:	2064                	.insn	2, 0x2064
    6316:	2038                	.insn	2, 0x2038
    6318:	6568                	.insn	2, 0x6568
    631a:	2078                	.insn	2, 0x2078
    631c:	6964                	.insn	2, 0x6964
    631e:	73746967          	.insn	4, 0x73746967
    6322:	2029                	.insn	2, 0x2029
    6324:	0000005b          	.insn	4, 0x005b
    6328:	2020                	.insn	2, 0x2020
    632a:	6544                	.insn	2, 0x6544
    632c:	70797263          	bgeu	s2,t2,6a30 <_idata_start+0x64>
    6330:	6974                	.insn	2, 0x6974
    6332:	6b206e6f          	jal	t3,c9e4 <_idata_start+0x6018>
    6336:	7965                	.insn	2, 0x7965
    6338:	2820                	.insn	2, 0x2820
    633a:	20647233          	.insn	4, 0x20647233
    633e:	2038                	.insn	2, 0x2038
    6340:	6568                	.insn	2, 0x6568
    6342:	2078                	.insn	2, 0x2078
    6344:	6964                	.insn	2, 0x6964
    6346:	73746967          	.insn	4, 0x73746967
    634a:	2029                	.insn	2, 0x2029
    634c:	0000005b          	.insn	4, 0x005b
    6350:	2020                	.insn	2, 0x2020
    6352:	6544                	.insn	2, 0x6544
    6354:	70797263          	bgeu	s2,t2,6a58 <_idata_start+0x8c>
    6358:	6974                	.insn	2, 0x6974
    635a:	6b206e6f          	jal	t3,ca0c <_idata_start+0x6040>
    635e:	7965                	.insn	2, 0x7965
    6360:	2820                	.insn	2, 0x2820
    6362:	7434                	.insn	2, 0x7434
    6364:	2068                	.insn	2, 0x2068
    6366:	2038                	.insn	2, 0x2038
    6368:	6568                	.insn	2, 0x6568
    636a:	2078                	.insn	2, 0x2078
    636c:	6964                	.insn	2, 0x6964
    636e:	73746967          	.insn	4, 0x73746967
    6372:	2029                	.insn	2, 0x2029
    6374:	0000005b          	.insn	4, 0x005b
    6378:	2020                	.insn	2, 0x2020
    637a:	6544                	.insn	2, 0x6544
    637c:	70797263          	bgeu	s2,t2,6a80 <_idata_start+0xb4>
    6380:	6974                	.insn	2, 0x6974
    6382:	6b206e6f          	jal	t3,ca34 <_idata_start+0x6068>
    6386:	7965                	.insn	2, 0x7965
    6388:	2820                	.insn	2, 0x2820
    638a:	7435                	.insn	2, 0x7435
    638c:	2068                	.insn	2, 0x2068
    638e:	2038                	.insn	2, 0x2038
    6390:	6568                	.insn	2, 0x6568
    6392:	2078                	.insn	2, 0x2078
    6394:	6964                	.insn	2, 0x6964
    6396:	73746967          	.insn	4, 0x73746967
    639a:	2029                	.insn	2, 0x2029
    639c:	0000005b          	.insn	4, 0x005b
    63a0:	2020                	.insn	2, 0x2020
    63a2:	6544                	.insn	2, 0x6544
    63a4:	70797263          	bgeu	s2,t2,6aa8 <_idata_start+0xdc>
    63a8:	6974                	.insn	2, 0x6974
    63aa:	6b206e6f          	jal	t3,ca5c <_idata_start+0x6090>
    63ae:	7965                	.insn	2, 0x7965
    63b0:	2820                	.insn	2, 0x2820
    63b2:	7436                	.insn	2, 0x7436
    63b4:	2068                	.insn	2, 0x2068
    63b6:	2038                	.insn	2, 0x2038
    63b8:	6568                	.insn	2, 0x6568
    63ba:	2078                	.insn	2, 0x2078
    63bc:	6964                	.insn	2, 0x6964
    63be:	73746967          	.insn	4, 0x73746967
    63c2:	2029                	.insn	2, 0x2029
    63c4:	0000005b          	.insn	4, 0x005b
    63c8:	2020                	.insn	2, 0x2020
    63ca:	6544                	.insn	2, 0x6544
    63cc:	70797263          	bgeu	s2,t2,6ad0 <_idata_start+0x104>
    63d0:	6974                	.insn	2, 0x6974
    63d2:	6b206e6f          	jal	t3,ca84 <_idata_start+0x60b8>
    63d6:	7965                	.insn	2, 0x7965
    63d8:	2820                	.insn	2, 0x2820
    63da:	20687437          	lui	s0,0x20687
    63de:	2038                	.insn	2, 0x2038
    63e0:	6568                	.insn	2, 0x6568
    63e2:	2078                	.insn	2, 0x2078
    63e4:	6964                	.insn	2, 0x6964
    63e6:	73746967          	.insn	4, 0x73746967
    63ea:	2029                	.insn	2, 0x2029
    63ec:	0000005b          	.insn	4, 0x005b
    63f0:	2020                	.insn	2, 0x2020
    63f2:	6544                	.insn	2, 0x6544
    63f4:	70797263          	bgeu	s2,t2,6af8 <_idata_start+0x12c>
    63f8:	6974                	.insn	2, 0x6974
    63fa:	6b206e6f          	jal	t3,caac <_idata_start+0x60e0>
    63fe:	7965                	.insn	2, 0x7965
    6400:	2820                	.insn	2, 0x2820
    6402:	7438                	.insn	2, 0x7438
    6404:	2068                	.insn	2, 0x2068
    6406:	2038                	.insn	2, 0x2038
    6408:	6568                	.insn	2, 0x6568
    640a:	2078                	.insn	2, 0x2078
    640c:	6964                	.insn	2, 0x6964
    640e:	73746967          	.insn	4, 0x73746967
    6412:	2029                	.insn	2, 0x2029
    6414:	0000005b          	.insn	4, 0x005b
    6418:	2020                	.insn	2, 0x2020
    641a:	6552                	.insn	2, 0x6552
    641c:	20746573          	.insn	4, 0x20746573
    6420:	646e6573          	.insn	4, 0x646e6573
    6424:	6365722f          	.insn	4, 0x6365722f
    6428:	2076                	.insn	2, 0x2076
    642a:	6e756f63          	bltu	a0,t2,6b28 <_idata_start+0x15c>
    642e:	6574                	.insn	2, 0x6574
    6430:	7372                	.insn	2, 0x7372
    6432:	7928203f 20296e2f 	.insn	8, 0x20296e2f7928203f
    643a:	3a5d6e5b          	.insn	4, 0x3a5d6e5b
    643e:	0020                	.insn	2, 0x0020
    6440:	70797243          	.insn	4, 0x70797243
    6444:	6f74                	.insn	2, 0x6f74
    6446:	2079656b          	.insn	4, 0x2079656b
    644a:	6174                	.insn	2, 0x6174
    644c:	6c62                	.insn	2, 0x6c62
    644e:	2065                	.insn	2, 0x2065
    6450:	6e65                	.insn	2, 0x6e65
    6452:	7274                	.insn	2, 0x7274
    6454:	2079                	.insn	2, 0x2079
    6456:	7075                	.insn	2, 0x7075
    6458:	6164                	.insn	2, 0x6164
    645a:	6574                	.insn	2, 0x6574
    645c:	2e64                	.insn	2, 0x2e64
    645e:	0a0d                	.insn	2, 0x0a0d
    6460:	0000                	.insn	2, 0x
    6462:	0000                	.insn	2, 0x
    6464:	6564                	.insn	2, 0x6564
    6466:	7562                	.insn	2, 0x7562
    6468:	00000a67          	jalr	s4,zero # 0 <_boot_crt>
    646c:	6544                	.insn	2, 0x6544
    646e:	7562                	.insn	2, 0x7562
    6470:	6f6d2067          	.insn	4, 0x6f6d2067
    6474:	6564                	.insn	2, 0x6564
    6476:	0020                	.insn	2, 0x0020
    6478:	6e65                	.insn	2, 0x6e65
    647a:	6261                	.insn	2, 0x6261
    647c:	656c                	.insn	2, 0x656c
    647e:	2e64                	.insn	2, 0x2e64
    6480:	0a0d                	.insn	2, 0x0a0d
    6482:	0000                	.insn	2, 0x
    6484:	6964                	.insn	2, 0x6964
    6486:	6c626173          	.insn	4, 0x6c626173
    648a:	6465                	.insn	2, 0x6465
    648c:	0d2e                	.insn	2, 0x0d2e
    648e:	000a                	.insn	2, 0x000a
    6490:	6572                	.insn	2, 0x6572
    6492:	6f62                	.insn	2, 0x6f62
    6494:	000a746f          	jal	s0,ad494 <_idata_start+0xa6ac8>
    6498:	6568                	.insn	2, 0x6568
    649a:	706c                	.insn	2, 0x706c
    649c:	000a                	.insn	2, 0x000a
    649e:	0000                	.insn	2, 0x
    64a0:	7641                	.insn	2, 0x7641
    64a2:	6961                	.insn	2, 0x6961
    64a4:	616c                	.insn	2, 0x616c
    64a6:	6c62                	.insn	2, 0x6c62
    64a8:	2065                	.insn	2, 0x2065
    64aa:	6d6d6f63          	bltu	s10,s6,6b88 <_idata_start+0x1bc>
    64ae:	6e61                	.insn	2, 0x6e61
    64b0:	7364                	.insn	2, 0x7364
    64b2:	0d3a                	.insn	2, 0x0d3a
    64b4:	000a                	.insn	2, 0x000a
    64b6:	0000                	.insn	2, 0x
    64b8:	2020                	.insn	2, 0x2020
    64ba:	6574                	.insn	2, 0x6574
    64bc:	63207473          	.insn	4, 0x63207473
    64c0:	6168                	.insn	2, 0x6168
    64c2:	32616863          	bltu	sp,t1,67f2 <__modsi3+0xfaa>
    64c6:	7030                	.insn	2, 0x7030
    64c8:	31796c6f          	jal	s8,9cfde <_idata_start+0x96612>
    64cc:	20353033          	.insn	4, 0x20353033
    64d0:	2d20                	.insn	2, 0x2d20
    64d2:	5420                	.insn	2, 0x5420
    64d4:	7365                	.insn	2, 0x7365
    64d6:	2074                	.insn	2, 0x2074
    64d8:	43616843          	.insn	4, 0x43616843
    64dc:	6168                	.insn	2, 0x6168
    64de:	3032                	.insn	2, 0x3032
    64e0:	502d                	.insn	2, 0x502d
    64e2:	31796c6f          	jal	s8,9cff8 <_idata_start+0x9662c>
    64e6:	20353033          	.insn	4, 0x20353033
    64ea:	4541                	.insn	2, 0x4541
    64ec:	4441                	.insn	2, 0x4441
    64ee:	0a0d                	.insn	2, 0x0a0d
    64f0:	0000                	.insn	2, 0x
    64f2:	0000                	.insn	2, 0x
    64f4:	2020                	.insn	2, 0x2020
    64f6:	6574                	.insn	2, 0x6574
    64f8:	62207473          	.insn	4, 0x62207473
    64fc:	616c                	.insn	2, 0x616c
    64fe:	7332656b          	.insn	4, 0x7332656b
    6502:	2020                	.insn	2, 0x2020
    6504:	2020                	.insn	2, 0x2020
    6506:	2020                	.insn	2, 0x2020
    6508:	2020                	.insn	2, 0x2020
    650a:	2020                	.insn	2, 0x2020
    650c:	2d20                	.insn	2, 0x2d20
    650e:	5420                	.insn	2, 0x5420
    6510:	7365                	.insn	2, 0x7365
    6512:	2074                	.insn	2, 0x2074
    6514:	4c42                	.insn	2, 0x4c42
    6516:	4b41                	.insn	2, 0x4b41
    6518:	3245                	.insn	2, 0x3245
    651a:	61682073          	.insn	4, 0x61682073
    651e:	66206873          	.insn	4, 0x66206873
    6522:	6e75                	.insn	2, 0x6e75
    6524:	6f697463          	bgeu	s2,s6,6c0c <_idata_start+0x240>
    6528:	0d6e                	.insn	2, 0x0d6e
    652a:	000a                	.insn	2, 0x000a
    652c:	2020                	.insn	2, 0x2020
    652e:	6574                	.insn	2, 0x6574
    6530:	63207473          	.insn	4, 0x63207473
    6534:	7275                	.insn	2, 0x7275
    6536:	6576                	.insn	2, 0x6576
    6538:	3532                	.insn	2, 0x3532
    653a:	3135                	.insn	2, 0x3135
    653c:	2039                	.insn	2, 0x2039
    653e:	2020                	.insn	2, 0x2020
    6540:	2020                	.insn	2, 0x2020
    6542:	2020                	.insn	2, 0x2020
    6544:	2d20                	.insn	2, 0x2d20
    6546:	5420                	.insn	2, 0x5420
    6548:	7365                	.insn	2, 0x7365
    654a:	2074                	.insn	2, 0x2074
    654c:	76727543          	.insn	4, 0x76727543
    6550:	3265                	.insn	2, 0x3265
    6552:	3535                	.insn	2, 0x3535
    6554:	3931                	.insn	2, 0x3931
    6556:	6b20                	.insn	2, 0x6b20
    6558:	7965                	.insn	2, 0x7965
    655a:	6520                	.insn	2, 0x6520
    655c:	6378                	.insn	2, 0x6378
    655e:	6168                	.insn	2, 0x6168
    6560:	676e                	.insn	2, 0x676e
    6562:	0d65                	.insn	2, 0x0d65
    6564:	000a                	.insn	2, 0x000a
    6566:	0000                	.insn	2, 0x
    6568:	2020                	.insn	2, 0x2020
    656a:	6574                	.insn	2, 0x6574
    656c:	72207473          	.insn	4, 0x72207473
    6570:	676e                	.insn	2, 0x676e
    6572:	2020                	.insn	2, 0x2020
    6574:	2020                	.insn	2, 0x2020
    6576:	2020                	.insn	2, 0x2020
    6578:	2020                	.insn	2, 0x2020
    657a:	2020                	.insn	2, 0x2020
    657c:	2020                	.insn	2, 0x2020
    657e:	2020                	.insn	2, 0x2020
    6580:	2d20                	.insn	2, 0x2d20
    6582:	5420                	.insn	2, 0x5420
    6584:	7365                	.insn	2, 0x7365
    6586:	2074                	.insn	2, 0x2074
    6588:	6172                	.insn	2, 0x6172
    658a:	646e                	.insn	2, 0x646e
    658c:	6e206d6f          	jal	s10,cc6e <_idata_start+0x62a2>
    6590:	6d75                	.insn	2, 0x6d75
    6592:	6562                	.insn	2, 0x6562
    6594:	2072                	.insn	2, 0x2072
    6596:	656e6567          	.insn	4, 0x656e6567
    659a:	6172                	.insn	2, 0x6172
    659c:	6f74                	.insn	2, 0x6f74
    659e:	0d72                	.insn	2, 0x0d72
    65a0:	000a                	.insn	2, 0x000a
    65a2:	0000                	.insn	2, 0x
    65a4:	2020                	.insn	2, 0x2020
    65a6:	6574                	.insn	2, 0x6574
    65a8:	74207473          	.insn	4, 0x74207473
    65ac:	6d69                	.insn	2, 0x6d69
    65ae:	7265                	.insn	2, 0x7265
    65b0:	2020                	.insn	2, 0x2020
    65b2:	2020                	.insn	2, 0x2020
    65b4:	2020                	.insn	2, 0x2020
    65b6:	2020                	.insn	2, 0x2020
    65b8:	2020                	.insn	2, 0x2020
    65ba:	2020                	.insn	2, 0x2020
    65bc:	2d20                	.insn	2, 0x2d20
    65be:	5420                	.insn	2, 0x5420
    65c0:	7365                	.insn	2, 0x7365
    65c2:	2074                	.insn	2, 0x2074
    65c4:	6974                	.insn	2, 0x6974
    65c6:	656d                	.insn	2, 0x656d
    65c8:	2072                	.insn	2, 0x2072
    65ca:	7566                	.insn	2, 0x7566
    65cc:	636e                	.insn	2, 0x636e
    65ce:	6974                	.insn	2, 0x6974
    65d0:	6c616e6f          	jal	t3,1cc96 <_idata_start+0x162ca>
    65d4:	7469                	.insn	2, 0x7469
    65d6:	0d79                	.insn	2, 0x0d79
    65d8:	000a                	.insn	2, 0x000a
    65da:	0000                	.insn	2, 0x
    65dc:	2020                	.insn	2, 0x2020
    65de:	776f6873          	.insn	4, 0x776f6873
    65e2:	6e20                	.insn	2, 0x6e20
    65e4:	7465                	.insn	2, 0x7465
    65e6:	6b726f77          	.insn	4, 0x6b726f77
    65ea:	2020                	.insn	2, 0x2020
    65ec:	2020                	.insn	2, 0x2020
    65ee:	2020                	.insn	2, 0x2020
    65f0:	2020                	.insn	2, 0x2020
    65f2:	2020                	.insn	2, 0x2020
    65f4:	2d20                	.insn	2, 0x2d20
    65f6:	5320                	.insn	2, 0x5320
    65f8:	6f68                	.insn	2, 0x6f68
    65fa:	656e2077          	.insn	4, 0x656e2077
    65fe:	7774                	.insn	2, 0x7774
    6600:	206b726f          	jal	tp,bd806 <_idata_start+0xb6e3a>
    6604:	666e6f63          	bltu	t3,t1,6c82 <_idata_start+0x2b6>
    6608:	6769                	.insn	2, 0x6769
    660a:	7275                	.insn	2, 0x7275
    660c:	7461                	.insn	2, 0x7461
    660e:	6f69                	.insn	2, 0x6f69
    6610:	0d6e                	.insn	2, 0x0d6e
    6612:	000a                	.insn	2, 0x000a
    6614:	2020                	.insn	2, 0x2020
    6616:	666e6f63          	bltu	t3,t1,6c94 <_idata_start+0x2c8>
    661a:	6769                	.insn	2, 0x6769
    661c:	6e20                	.insn	2, 0x6e20
    661e:	7465                	.insn	2, 0x7465
    6620:	6b726f77          	.insn	4, 0x6b726f77
    6624:	2020                	.insn	2, 0x2020
    6626:	2020                	.insn	2, 0x2020
    6628:	2020                	.insn	2, 0x2020
    662a:	2020                	.insn	2, 0x2020
    662c:	2d20                	.insn	2, 0x2d20
    662e:	4320                	.insn	2, 0x4320
    6630:	69666e6f          	jal	t3,6ccc6 <_idata_start+0x662fa>
    6634:	65727567          	.insn	4, 0x65727567
    6638:	6e20                	.insn	2, 0x6e20
    663a:	7465                	.insn	2, 0x7465
    663c:	6b726f77          	.insn	4, 0x6b726f77
    6640:	7320                	.insn	2, 0x7320
    6642:	7465                	.insn	2, 0x7465
    6644:	6974                	.insn	2, 0x6974
    6646:	676e                	.insn	2, 0x676e
    6648:	000a0d73          	.insn	4, 0x000a0d73
    664c:	2020                	.insn	2, 0x2020
    664e:	776f6873          	.insn	4, 0x776f6873
    6652:	7220                	.insn	2, 0x7220
    6654:	6574756f          	jal	a0,4e4aa <_idata_start+0x47ade>
    6658:	20202073          	.insn	4, 0x20202073
    665c:	2020                	.insn	2, 0x2020
    665e:	2020                	.insn	2, 0x2020
    6660:	2020                	.insn	2, 0x2020
    6662:	2020                	.insn	2, 0x2020
    6664:	2d20                	.insn	2, 0x2d20
    6666:	5320                	.insn	2, 0x5320
    6668:	6f68                	.insn	2, 0x6f68
    666a:	6f722077          	.insn	4, 0x6f722077
    666e:	7475                	.insn	2, 0x7475
    6670:	6e69                	.insn	2, 0x6e69
    6672:	61742067          	.insn	4, 0x61742067
    6676:	6c62                	.insn	2, 0x6c62
    6678:	0d65                	.insn	2, 0x0d65
    667a:	000a                	.insn	2, 0x000a
    667c:	2020                	.insn	2, 0x2020
    667e:	666e6f63          	bltu	t3,t1,6cfc <_idata_start+0x330>
    6682:	6769                	.insn	2, 0x6769
    6684:	7220                	.insn	2, 0x7220
    6686:	6574756f          	jal	a0,4e4dc <_idata_start+0x47b10>
    668a:	20202073          	.insn	4, 0x20202073
    668e:	2020                	.insn	2, 0x2020
    6690:	2020                	.insn	2, 0x2020
    6692:	2020                	.insn	2, 0x2020
    6694:	2d20                	.insn	2, 0x2d20
    6696:	4320                	.insn	2, 0x4320
    6698:	69666e6f          	jal	t3,6cd2e <_idata_start+0x66362>
    669c:	65727567          	.insn	4, 0x65727567
    66a0:	7220                	.insn	2, 0x7220
    66a2:	6974756f          	jal	a0,4e538 <_idata_start+0x47b6c>
    66a6:	676e                	.insn	2, 0x676e
    66a8:	7420                	.insn	2, 0x7420
    66aa:	6261                	.insn	2, 0x6261
    66ac:	656c                	.insn	2, 0x656c
    66ae:	6520                	.insn	2, 0x6520
    66b0:	746e                	.insn	2, 0x746e
    66b2:	7972                	.insn	2, 0x7972
    66b4:	0a0d                	.insn	2, 0x0a0d
    66b6:	0000                	.insn	2, 0x
    66b8:	2020                	.insn	2, 0x2020
    66ba:	776f6873          	.insn	4, 0x776f6873
    66be:	6320                	.insn	2, 0x6320
    66c0:	7972                	.insn	2, 0x7972
    66c2:	7470                	.insn	2, 0x7470
    66c4:	79656b6f          	jal	s6,5ce5a <_idata_start+0x5648e>
    66c8:	20202073          	.insn	4, 0x20202073
    66cc:	2020                	.insn	2, 0x2020
    66ce:	2020                	.insn	2, 0x2020
    66d0:	2d20                	.insn	2, 0x2d20
    66d2:	5320                	.insn	2, 0x5320
    66d4:	6f68                	.insn	2, 0x6f68
    66d6:	72632077          	.insn	4, 0x72632077
    66da:	7079                	.insn	2, 0x7079
    66dc:	6f74                	.insn	2, 0x6f74
    66de:	2079656b          	.insn	4, 0x2079656b
    66e2:	6174                	.insn	2, 0x6174
    66e4:	6c62                	.insn	2, 0x6c62
    66e6:	0d65                	.insn	2, 0x0d65
    66e8:	000a                	.insn	2, 0x000a
    66ea:	0000                	.insn	2, 0x
    66ec:	2020                	.insn	2, 0x2020
    66ee:	666e6f63          	bltu	t3,t1,6d6c <_idata_start+0x3a0>
    66f2:	6769                	.insn	2, 0x6769
    66f4:	6320                	.insn	2, 0x6320
    66f6:	7972                	.insn	2, 0x7972
    66f8:	7470                	.insn	2, 0x7470
    66fa:	79656b6f          	jal	s6,5ce90 <_idata_start+0x564c4>
    66fe:	20202073          	.insn	4, 0x20202073
    6702:	2020                	.insn	2, 0x2020
    6704:	2d20                	.insn	2, 0x2d20
    6706:	4320                	.insn	2, 0x4320
    6708:	69666e6f          	jal	t3,6cd9e <_idata_start+0x663d2>
    670c:	65727567          	.insn	4, 0x65727567
    6710:	6320                	.insn	2, 0x6320
    6712:	7972                	.insn	2, 0x7972
    6714:	7470                	.insn	2, 0x7470
    6716:	79656b6f          	jal	s6,5ceac <_idata_start+0x564e0>
    671a:	7420                	.insn	2, 0x7420
    671c:	6261                	.insn	2, 0x6261
    671e:	656c                	.insn	2, 0x656c
    6720:	6520                	.insn	2, 0x6520
    6722:	746e                	.insn	2, 0x746e
    6724:	7972                	.insn	2, 0x7972
    6726:	0a0d                	.insn	2, 0x0a0d
    6728:	0000                	.insn	2, 0x
    672a:	0000                	.insn	2, 0x
    672c:	2020                	.insn	2, 0x2020
    672e:	6564                	.insn	2, 0x6564
    6730:	7562                	.insn	2, 0x7562
    6732:	20202067          	.insn	4, 0x20202067
    6736:	2020                	.insn	2, 0x2020
    6738:	2020                	.insn	2, 0x2020
    673a:	2020                	.insn	2, 0x2020
    673c:	2020                	.insn	2, 0x2020
    673e:	2020                	.insn	2, 0x2020
    6740:	2020                	.insn	2, 0x2020
    6742:	2020                	.insn	2, 0x2020
    6744:	2d20                	.insn	2, 0x2d20
    6746:	5420                	.insn	2, 0x5420
    6748:	6c67676f          	jal	a4,7ce0e <_idata_start+0x76442>
    674c:	2065                	.insn	2, 0x2065
    674e:	6564                	.insn	2, 0x6564
    6750:	7562                	.insn	2, 0x7562
    6752:	6f6d2067          	.insn	4, 0x6f6d2067
    6756:	6564                	.insn	2, 0x6564
    6758:	0a0d                	.insn	2, 0x0a0d
    675a:	0000                	.insn	2, 0x
    675c:	2020                	.insn	2, 0x2020
    675e:	6572                	.insn	2, 0x6572
    6760:	6f62                	.insn	2, 0x6f62
    6762:	2020746f          	jal	s0,d964 <_idata_start+0x6f98>
    6766:	2020                	.insn	2, 0x2020
    6768:	2020                	.insn	2, 0x2020
    676a:	2020                	.insn	2, 0x2020
    676c:	2020                	.insn	2, 0x2020
    676e:	2020                	.insn	2, 0x2020
    6770:	2020                	.insn	2, 0x2020
    6772:	2020                	.insn	2, 0x2020
    6774:	2d20                	.insn	2, 0x2d20
    6776:	5220                	.insn	2, 0x5220
    6778:	6265                	.insn	2, 0x6265
    677a:	20746f6f          	jal	t5,4d180 <_idata_start+0x467b4>
    677e:	6874                	.insn	2, 0x6874
    6780:	2065                	.insn	2, 0x2065
    6782:	74737973          	.insn	4, 0x74737973
    6786:	6d65                	.insn	2, 0x6d65
    6788:	0a0d                	.insn	2, 0x0a0d
    678a:	0000                	.insn	2, 0x
    678c:	2020                	.insn	2, 0x2020
    678e:	6568                	.insn	2, 0x6568
    6790:	706c                	.insn	2, 0x706c
    6792:	2020                	.insn	2, 0x2020
    6794:	2020                	.insn	2, 0x2020
    6796:	2020                	.insn	2, 0x2020
    6798:	2020                	.insn	2, 0x2020
    679a:	2020                	.insn	2, 0x2020
    679c:	2020                	.insn	2, 0x2020
    679e:	2020                	.insn	2, 0x2020
    67a0:	2020                	.insn	2, 0x2020
    67a2:	2020                	.insn	2, 0x2020
    67a4:	2d20                	.insn	2, 0x2d20
    67a6:	5320                	.insn	2, 0x5320
    67a8:	6f68                	.insn	2, 0x6f68
    67aa:	68742077          	.insn	4, 0x68742077
    67ae:	7369                	.insn	2, 0x7369
    67b0:	6820                	.insn	2, 0x6820
    67b2:	6c65                	.insn	2, 0x6c65
    67b4:	2070                	.insn	2, 0x2070
    67b6:	656d                	.insn	2, 0x656d
    67b8:	67617373          	.insn	4, 0x67617373
    67bc:	0d65                	.insn	2, 0x0d65
    67be:	000a                	.insn	2, 0x000a
    67c0:	6e55                	.insn	2, 0x6e55
    67c2:	776f6e6b          	.insn	4, 0x776f6e6b
    67c6:	206e                	.insn	2, 0x206e
    67c8:	6d6d6f63          	bltu	s10,s6,6ea6 <_idata_start+0x4da>
    67cc:	6e61                	.insn	2, 0x6e61
    67ce:	0d64                	.insn	2, 0x0d64
    67d0:	000a                	.insn	2, 0x000a
    67d2:	0000                	.insn	2, 0x
    67d4:	0000                	.insn	2, 0x
    67d6:	0000                	.insn	2, 0x
    67d8:	1258                	.insn	2, 0x1258
    67da:	0000                	.insn	2, 0x
    67dc:	128c                	.insn	2, 0x128c
    67de:	0000                	.insn	2, 0x
    67e0:	1298                	.insn	2, 0x1298
    67e2:	0000                	.insn	2, 0x
    67e4:	12a4                	.insn	2, 0x12a4
    67e6:	0000                	.insn	2, 0x
    67e8:	12b0                	.insn	2, 0x12b0
    67ea:	0000                	.insn	2, 0x
    67ec:	12bc                	.insn	2, 0x12bc
    67ee:	0000                	.insn	2, 0x
    67f0:	12c8                	.insn	2, 0x12c8
    67f2:	0000                	.insn	2, 0x
    67f4:	12d4                	.insn	2, 0x12d4
    67f6:	0000                	.insn	2, 0x
    67f8:	19d4                	.insn	2, 0x19d4
    67fa:	0000                	.insn	2, 0x
    67fc:	1a04                	.insn	2, 0x1a04
    67fe:	0000                	.insn	2, 0x
    6800:	1a10                	.insn	2, 0x1a10
    6802:	0000                	.insn	2, 0x
    6804:	1a1c                	.insn	2, 0x1a1c
    6806:	0000                	.insn	2, 0x
    6808:	1a28                	.insn	2, 0x1a28
    680a:	0000                	.insn	2, 0x
    680c:	1a34                	.insn	2, 0x1a34
    680e:	0000                	.insn	2, 0x
    6810:	1a40                	.insn	2, 0x1a40
    6812:	0000                	.insn	2, 0x
    6814:	1a4c                	.insn	2, 0x1a4c
    6816:	0000                	.insn	2, 0x
    6818:	0100                	.insn	2, 0x0100
    681a:	0302                	.insn	2, 0x0302
    681c:	0504                	.insn	2, 0x0504
    681e:	0706                	.insn	2, 0x0706
    6820:	0908                	.insn	2, 0x0908
    6822:	0b0a                	.insn	2, 0x0b0a
    6824:	0d0c                	.insn	2, 0x0d0c
    6826:	0f0e                	.insn	2, 0x0f0e
    6828:	0a0e                	.insn	2, 0x0a0e
    682a:	0804                	.insn	2, 0x0804
    682c:	0f09                	.insn	2, 0x0f09
    682e:	060d                	.insn	2, 0x060d
    6830:	0c01                	.insn	2, 0x0c01
    6832:	0200                	.insn	2, 0x0200
    6834:	0305070b          	.insn	4, 0x0305070b
    6838:	000c080b          	.insn	4, 0x000c080b
    683c:	0205                	.insn	2, 0x0205
    683e:	0e0a0d0f          	.insn	4, 0x0e0a0d0f
    6842:	01070603          	lb	a2,16(a4) # ffff0010 <_stack_start+0xeffe0010>
    6846:	0409                	.insn	2, 0x0409
    6848:	01030907          	.insn	4, 0x01030907
    684c:	0c0d                	.insn	2, 0x0c0d
    684e:	06020e0b          	.insn	4, 0x06020e0b
    6852:	0a05                	.insn	2, 0x0a05
    6854:	0004                	.insn	2, 0x0004
    6856:	0009080f          	.insn	4, 0x0009080f
    685a:	0705                	.insn	2, 0x0705
    685c:	0402                	.insn	2, 0x0402
    685e:	0f0a                	.insn	2, 0x0f0a
    6860:	010e                	.insn	2, 0x010e
    6862:	08060c0b          	.insn	4, 0x08060c0b
    6866:	0c020d03          	lb	s10,192(tp) # c0 <uart_send_hex+0x24>
    686a:	0a06                	.insn	2, 0x0a06
    686c:	0b00                	.insn	2, 0x0b00
    686e:	0308                	.insn	2, 0x0308
    6870:	0d04                	.insn	2, 0x0d04
    6872:	0e0f0507          	.insn	4, 0x0e0f0507
    6876:	0901                	.insn	2, 0x0901
    6878:	050c                	.insn	2, 0x050c
    687a:	0f01                	.insn	2, 0x0f01
    687c:	0d0e                	.insn	2, 0x0d0e
    687e:	0a04                	.insn	2, 0x0a04
    6880:	0700                	.insn	2, 0x0700
    6882:	0306                	.insn	2, 0x0306
    6884:	0209                	.insn	2, 0x0209
    6886:	0b08                	.insn	2, 0x0b08
    6888:	0b0d                	.insn	2, 0x0b0d
    688a:	010c0e07          	.insn	4, 0x010c0e07
    688e:	00050903          	lb	s2,0(a0)
    6892:	0608040f          	.insn	4, 0x0608040f
    6896:	0a02                	.insn	2, 0x0a02
    6898:	0f06                	.insn	2, 0x0f06
    689a:	090e                	.insn	2, 0x090e
    689c:	0800030b          	.insn	4, 0x0800030b
    68a0:	020c                	.insn	2, 0x020c
    68a2:	070d                	.insn	2, 0x070d
    68a4:	0401                	.insn	2, 0x0401
    68a6:	050a                	.insn	2, 0x050a
    68a8:	020a                	.insn	2, 0x020a
    68aa:	0408                	.insn	2, 0x0408
    68ac:	05010607          	.insn	4, 0x05010607
    68b0:	0e090b0f          	.insn	4, 0x0e090b0f
    68b4:	000d0c03          	lb	s8,0(s10)

000068b8 <blake2s_iv>:
    68b8:	6a09e667 bb67ae85 3c6ef372 a54ff53a     g..j..g.r.n<:.O.
    68c8:	510e527f 9b05688c 1f83d9ab 5be0cd19     .R.Q.h.........[

000068d8 <_121665>:
    68d8:	0000db41 00000000 00000001 00000000     A...............
	...
    6958:	00000007 43424140 47464544 00005b50     ....@ABCDEFGP[..
    6968:	307a2169 94809079 d02111e1 7c4a3542     i!z0y.....!.B5J|
    6978:	48b6551f 1ea5a12c fd0d251b f9eed01e     .U.H,....%......
    6988:	00005d3c 8c5e8c50 e2147c32 a32ba7e1     <]..P.^.2|....+.
    6998:	2f45eb4e 208b4537 293ad69e 4c9b994d     N.E/7E. ..:)M..L
    69a8:	82596786                                .gY.

000069ac <_9>:
    69ac:	00000009 00000000 00000000 00000000     ................
	...
