
/mnt/c/Users/azuni/Documents/Projects/wireguard-fpga/3.build/sw_build/main.elf:     file format elf32-littleriscv


Disassembly of section .text:

00000000 <_boot_crt>:
       0:	00001517          	auipc	a0,0x1
       4:	27c50513          	addi	a0,a0,636 # 127c <_idata_start>
       8:	10000597          	auipc	a1,0x10000
       c:	ff858593          	addi	a1,a1,-8 # 10000000 <heap_memory>
      10:	10000617          	auipc	a2,0x10000
      14:	ff060613          	addi	a2,a2,-16 # 10000000 <heap_memory>
      18:	00c5dc63          	bge	a1,a2,30 <end_copy_idata>

0000001c <loop_copy_idata>:
      1c:	00052683          	lw	a3,0(a0)
      20:	00d5a023          	sw	a3,0(a1)
      24:	00450513          	addi	a0,a0,4
      28:	00458593          	addi	a1,a1,4
      2c:	fec5c8e3          	blt	a1,a2,1c <loop_copy_idata>

00000030 <end_copy_idata>:
      30:	10000517          	auipc	a0,0x10000
      34:	fd050513          	addi	a0,a0,-48 # 10000000 <heap_memory>
      38:	00418593          	addi	a1,gp,4 # 10000804 <_bss_end>
      3c:	00b55863          	bge	a0,a1,4c <end_clear_bss>

00000040 <loop_clear_bss>:
      40:	00052023          	sw	zero,0(a0)
      44:	00450513          	addi	a0,a0,4
      48:	feb54ce3          	blt	a0,a1,40 <loop_clear_bss>

0000004c <end_clear_bss>:
      4c:	10008117          	auipc	sp,0x10008
      50:	fb410113          	addi	sp,sp,-76 # 10008000 <_stack_start>
      54:	10000197          	auipc	gp,0x10000
      58:	7ac18193          	addi	gp,gp,1964 # 10000800 <heap_memory_used>
      5c:	00a54533          	xor	a0,a0,a0
      60:	00b5c5b3          	xor	a1,a1,a1
      64:	00c64633          	xor	a2,a2,a2
      68:	6a8000ef          	jal	710 <main>

0000006c <loop_forever>:
      6c:	0000006f          	j	6c <loop_forever>

00000070 <uart_send_char>:
      70:	fe010113          	addi	sp,sp,-32
      74:	00112e23          	sw	ra,28(sp)
      78:	00a12623          	sw	a0,12(sp)
      7c:	00058793          	mv	a5,a1
      80:	00f105a3          	sb	a5,11(sp)
      84:	00000013          	nop
      88:	00c12783          	lw	a5,12(sp)
      8c:	0047a783          	lw	a5,4(a5)
      90:	0087a783          	lw	a5,8(a5)
      94:	00078513          	mv	a0,a5
      98:	388000ef          	jal	420 <csr__uart__tx_vp_t::busy()>
      9c:	00050793          	mv	a5,a0
      a0:	00f037b3          	snez	a5,a5
      a4:	0ff7f793          	zext.b	a5,a5
      a8:	fe0790e3          	bnez	a5,88 <uart_send_char+0x18>
      ac:	00c12783          	lw	a5,12(sp)
      b0:	0047a783          	lw	a5,4(a5)
      b4:	0087a783          	lw	a5,8(a5)
      b8:	00b14703          	lbu	a4,11(sp)
      bc:	00070593          	mv	a1,a4
      c0:	00078513          	mv	a0,a5
      c4:	330000ef          	jal	3f4 <csr__uart__tx_vp_t::data(unsigned long)>
      c8:	00000013          	nop
      cc:	01c12083          	lw	ra,28(sp)
      d0:	02010113          	addi	sp,sp,32
      d4:	00008067          	ret

000000d8 <uart_send_hex>:
      d8:	fd010113          	addi	sp,sp,-48
      dc:	02112623          	sw	ra,44(sp)
      e0:	00a12623          	sw	a0,12(sp)
      e4:	00b12423          	sw	a1,8(sp)
      e8:	00c12223          	sw	a2,4(sp)
      ec:	00412783          	lw	a5,4(sp)
      f0:	fff78793          	addi	a5,a5,-1
      f4:	00279793          	slli	a5,a5,0x2
      f8:	00f12e23          	sw	a5,28(sp)
      fc:	03c0006f          	j	138 <uart_send_hex+0x60>
     100:	01c12783          	lw	a5,28(sp)
     104:	00812703          	lw	a4,8(sp)
     108:	00f757b3          	srl	a5,a4,a5
     10c:	00f7f793          	andi	a5,a5,15
     110:	00001737          	lui	a4,0x1
     114:	17870713          	addi	a4,a4,376 # 1178 <csr_vp_t::csr_vp_t(unsigned long*)+0x160>
     118:	00f707b3          	add	a5,a4,a5
     11c:	0007c783          	lbu	a5,0(a5)
     120:	00078593          	mv	a1,a5
     124:	00c12503          	lw	a0,12(sp)
     128:	f49ff0ef          	jal	70 <uart_send_char>
     12c:	01c12783          	lw	a5,28(sp)
     130:	ffc78793          	addi	a5,a5,-4
     134:	00f12e23          	sw	a5,28(sp)
     138:	01c12783          	lw	a5,28(sp)
     13c:	fc07d2e3          	bgez	a5,100 <uart_send_hex+0x28>
     140:	00000013          	nop
     144:	00000013          	nop
     148:	02c12083          	lw	ra,44(sp)
     14c:	03010113          	addi	sp,sp,48
     150:	00008067          	ret

00000154 <uart_send>:
     154:	fe010113          	addi	sp,sp,-32
     158:	00112e23          	sw	ra,28(sp)
     15c:	00a12623          	sw	a0,12(sp)
     160:	00b12423          	sw	a1,8(sp)
     164:	0200006f          	j	184 <uart_send+0x30>
     168:	00812783          	lw	a5,8(sp)
     16c:	00178713          	addi	a4,a5,1
     170:	00e12423          	sw	a4,8(sp)
     174:	0007c783          	lbu	a5,0(a5)
     178:	00078593          	mv	a1,a5
     17c:	00c12503          	lw	a0,12(sp)
     180:	ef1ff0ef          	jal	70 <uart_send_char>
     184:	00812783          	lw	a5,8(sp)
     188:	0007c783          	lbu	a5,0(a5)
     18c:	fc079ee3          	bnez	a5,168 <uart_send+0x14>
     190:	00000013          	nop
     194:	00000013          	nop
     198:	01c12083          	lw	ra,28(sp)
     19c:	02010113          	addi	sp,sp,32
     1a0:	00008067          	ret

000001a4 <uart_recv>:
     1a4:	fd010113          	addi	sp,sp,-48
     1a8:	02112623          	sw	ra,44(sp)
     1ac:	00a12623          	sw	a0,12(sp)
     1b0:	00b12423          	sw	a1,8(sp)
     1b4:	00012e23          	sw	zero,28(sp)
     1b8:	0d00006f          	j	288 <_STACK_SIZE+0x88>
     1bc:	00c12783          	lw	a5,12(sp)
     1c0:	0047a783          	lw	a5,4(a5)
     1c4:	0007a783          	lw	a5,0(a5)
     1c8:	00078513          	mv	a0,a5
     1cc:	208000ef          	jal	3d4 <csr__uart__rx_vp_t::full()>
     1d0:	00a12c23          	sw	a0,24(sp)
     1d4:	01812783          	lw	a5,24(sp)
     1d8:	fe07d2e3          	bgez	a5,1bc <uart_recv+0x18>
     1dc:	01812783          	lw	a5,24(sp)
     1e0:	0ff7f713          	zext.b	a4,a5
     1e4:	00812783          	lw	a5,8(sp)
     1e8:	00e78023          	sb	a4,0(a5)
     1ec:	00812783          	lw	a5,8(sp)
     1f0:	0007c783          	lbu	a5,0(a5)
     1f4:	00078593          	mv	a1,a5
     1f8:	00c12503          	lw	a0,12(sp)
     1fc:	e75ff0ef          	jal	70 <uart_send_char>
     200:	01c12703          	lw	a4,28(sp)
     204:	01d00793          	li	a5,29
     208:	04f71063          	bne	a4,a5,248 <_STACK_SIZE+0x48>
     20c:	00812783          	lw	a5,8(sp)
     210:	00d00713          	li	a4,13
     214:	00e78023          	sb	a4,0(a5)
     218:	00812783          	lw	a5,8(sp)
     21c:	00178793          	addi	a5,a5,1
     220:	00f12423          	sw	a5,8(sp)
     224:	00812783          	lw	a5,8(sp)
     228:	00a00713          	li	a4,10
     22c:	00e78023          	sb	a4,0(a5)
     230:	00812783          	lw	a5,8(sp)
     234:	00178793          	addi	a5,a5,1
     238:	00f12423          	sw	a5,8(sp)
     23c:	00812783          	lw	a5,8(sp)
     240:	00078023          	sb	zero,0(a5)
     244:	0540006f          	j	298 <_STACK_SIZE+0x98>
     248:	00812783          	lw	a5,8(sp)
     24c:	0007c703          	lbu	a4,0(a5)
     250:	00a00793          	li	a5,10
     254:	00f71e63          	bne	a4,a5,270 <_STACK_SIZE+0x70>
     258:	00812783          	lw	a5,8(sp)
     25c:	00178793          	addi	a5,a5,1
     260:	00f12423          	sw	a5,8(sp)
     264:	00812783          	lw	a5,8(sp)
     268:	00078023          	sb	zero,0(a5)
     26c:	02c0006f          	j	298 <_STACK_SIZE+0x98>
     270:	00812783          	lw	a5,8(sp)
     274:	00178793          	addi	a5,a5,1
     278:	00f12423          	sw	a5,8(sp)
     27c:	01c12783          	lw	a5,28(sp)
     280:	00178793          	addi	a5,a5,1
     284:	00f12e23          	sw	a5,28(sp)
     288:	01c12703          	lw	a4,28(sp)
     28c:	01e00793          	li	a5,30
     290:	f2e7d6e3          	bge	a5,a4,1bc <uart_recv+0x18>
     294:	00000013          	nop
     298:	00000013          	nop
     29c:	02c12083          	lw	ra,44(sp)
     2a0:	03010113          	addi	sp,sp,48
     2a4:	00008067          	ret

000002a8 <uart_test>:
     2a8:	fb010113          	addi	sp,sp,-80
     2ac:	04112623          	sw	ra,76(sp)
     2b0:	00a12623          	sw	a0,12(sp)
     2b4:	000017b7          	lui	a5,0x1
     2b8:	18c78793          	addi	a5,a5,396 # 118c <csr_vp_t::csr_vp_t(unsigned long*)+0x174>
     2bc:	02f12c23          	sw	a5,56(sp)
     2c0:	000017b7          	lui	a5,0x1
     2c4:	1a078593          	addi	a1,a5,416 # 11a0 <csr_vp_t::csr_vp_t(unsigned long*)+0x188>
     2c8:	00c12503          	lw	a0,12(sp)
     2cc:	e89ff0ef          	jal	154 <uart_send>
     2d0:	000017b7          	lui	a5,0x1
     2d4:	1bc78593          	addi	a1,a5,444 # 11bc <csr_vp_t::csr_vp_t(unsigned long*)+0x1a4>
     2d8:	00c12503          	lw	a0,12(sp)
     2dc:	e79ff0ef          	jal	154 <uart_send>
     2e0:	00300793          	li	a5,3
     2e4:	02f12e23          	sw	a5,60(sp)
     2e8:	0c40006f          	j	3ac <uart_test+0x104>
     2ec:	01410793          	addi	a5,sp,20
     2f0:	02f12a23          	sw	a5,52(sp)
     2f4:	03412583          	lw	a1,52(sp)
     2f8:	00c12503          	lw	a0,12(sp)
     2fc:	ea9ff0ef          	jal	1a4 <uart_recv>
     300:	000017b7          	lui	a5,0x1
     304:	1fc78593          	addi	a1,a5,508 # 11fc <csr_vp_t::csr_vp_t(unsigned long*)+0x1e4>
     308:	00c12503          	lw	a0,12(sp)
     30c:	e49ff0ef          	jal	154 <uart_send>
     310:	03412583          	lw	a1,52(sp)
     314:	00c12503          	lw	a0,12(sp)
     318:	e3dff0ef          	jal	154 <uart_send>
     31c:	03412583          	lw	a1,52(sp)
     320:	03812503          	lw	a0,56(sp)
     324:	2d8000ef          	jal	5fc <strcmp>
     328:	00050793          	mv	a5,a0
     32c:	0017b793          	seqz	a5,a5
     330:	0ff7f793          	zext.b	a5,a5
     334:	00078c63          	beqz	a5,34c <uart_test+0xa4>
     338:	000017b7          	lui	a5,0x1
     33c:	21078593          	addi	a1,a5,528 # 1210 <csr_vp_t::csr_vp_t(unsigned long*)+0x1f8>
     340:	00c12503          	lw	a0,12(sp)
     344:	e11ff0ef          	jal	154 <uart_send>
     348:	06c0006f          	j	3b4 <uart_test+0x10c>
     34c:	000017b7          	lui	a5,0x1
     350:	22878593          	addi	a1,a5,552 # 1228 <csr_vp_t::csr_vp_t(unsigned long*)+0x210>
     354:	00c12503          	lw	a0,12(sp)
     358:	dfdff0ef          	jal	154 <uart_send>
     35c:	03c12703          	lw	a4,60(sp)
     360:	00100793          	li	a5,1
     364:	02e7de63          	bge	a5,a4,3a0 <uart_test+0xf8>
     368:	000017b7          	lui	a5,0x1
     36c:	24478593          	addi	a1,a5,580 # 1244 <csr_vp_t::csr_vp_t(unsigned long*)+0x22c>
     370:	00c12503          	lw	a0,12(sp)
     374:	de1ff0ef          	jal	154 <uart_send>
     378:	03c12783          	lw	a5,60(sp)
     37c:	fff78793          	addi	a5,a5,-1
     380:	00100613          	li	a2,1
     384:	00078593          	mv	a1,a5
     388:	00c12503          	lw	a0,12(sp)
     38c:	d4dff0ef          	jal	d8 <uart_send_hex>
     390:	000017b7          	lui	a5,0x1
     394:	26878593          	addi	a1,a5,616 # 1268 <csr_vp_t::csr_vp_t(unsigned long*)+0x250>
     398:	00c12503          	lw	a0,12(sp)
     39c:	db9ff0ef          	jal	154 <uart_send>
     3a0:	03c12783          	lw	a5,60(sp)
     3a4:	fff78793          	addi	a5,a5,-1
     3a8:	02f12e23          	sw	a5,60(sp)
     3ac:	03c12783          	lw	a5,60(sp)
     3b0:	f2f04ee3          	bgtz	a5,2ec <uart_test+0x44>
     3b4:	000017b7          	lui	a5,0x1
     3b8:	27078593          	addi	a1,a5,624 # 1270 <csr_vp_t::csr_vp_t(unsigned long*)+0x258>
     3bc:	00c12503          	lw	a0,12(sp)
     3c0:	d95ff0ef          	jal	154 <uart_send>
     3c4:	00000013          	nop
     3c8:	04c12083          	lw	ra,76(sp)
     3cc:	05010113          	addi	sp,sp,80
     3d0:	00008067          	ret

000003d4 <csr__uart__rx_vp_t::full()>:
     3d4:	ff010113          	addi	sp,sp,-16
     3d8:	00a12623          	sw	a0,12(sp)
     3dc:	00c12783          	lw	a5,12(sp)
     3e0:	0007a783          	lw	a5,0(a5)
     3e4:	0007a783          	lw	a5,0(a5)
     3e8:	00078513          	mv	a0,a5
     3ec:	01010113          	addi	sp,sp,16
     3f0:	00008067          	ret

000003f4 <csr__uart__tx_vp_t::data(unsigned long)>:
     3f4:	ff010113          	addi	sp,sp,-16
     3f8:	00a12623          	sw	a0,12(sp)
     3fc:	00b12423          	sw	a1,8(sp)
     400:	00c12783          	lw	a5,12(sp)
     404:	0007a783          	lw	a5,0(a5)
     408:	00812703          	lw	a4,8(sp)
     40c:	0ff77713          	zext.b	a4,a4
     410:	00e78023          	sb	a4,0(a5)
     414:	00000013          	nop
     418:	01010113          	addi	sp,sp,16
     41c:	00008067          	ret

00000420 <csr__uart__tx_vp_t::busy()>:
     420:	ff010113          	addi	sp,sp,-16
     424:	00a12623          	sw	a0,12(sp)
     428:	00c12783          	lw	a5,12(sp)
     42c:	0007a783          	lw	a5,0(a5)
     430:	0007a783          	lw	a5,0(a5)
     434:	01f7d793          	srli	a5,a5,0x1f
     438:	0ff7f793          	zext.b	a5,a5
     43c:	00078513          	mv	a0,a5
     440:	01010113          	addi	sp,sp,16
     444:	00008067          	ret

00000448 <memset>:
     448:	fe010113          	addi	sp,sp,-32
     44c:	00a12623          	sw	a0,12(sp)
     450:	00b12423          	sw	a1,8(sp)
     454:	00c12223          	sw	a2,4(sp)
     458:	00c12783          	lw	a5,12(sp)
     45c:	00f12c23          	sw	a5,24(sp)
     460:	00812783          	lw	a5,8(sp)
     464:	00f10ba3          	sb	a5,23(sp)
     468:	00012e23          	sw	zero,28(sp)
     46c:	0240006f          	j	490 <memset+0x48>
     470:	01812703          	lw	a4,24(sp)
     474:	01c12783          	lw	a5,28(sp)
     478:	00f707b3          	add	a5,a4,a5
     47c:	01714703          	lbu	a4,23(sp)
     480:	00e78023          	sb	a4,0(a5)
     484:	01c12783          	lw	a5,28(sp)
     488:	00178793          	addi	a5,a5,1
     48c:	00f12e23          	sw	a5,28(sp)
     490:	01c12703          	lw	a4,28(sp)
     494:	00412783          	lw	a5,4(sp)
     498:	fcf76ce3          	bltu	a4,a5,470 <memset+0x28>
     49c:	00c12783          	lw	a5,12(sp)
     4a0:	00078513          	mv	a0,a5
     4a4:	02010113          	addi	sp,sp,32
     4a8:	00008067          	ret

000004ac <memcpy>:
     4ac:	fe010113          	addi	sp,sp,-32
     4b0:	00a12623          	sw	a0,12(sp)
     4b4:	00b12423          	sw	a1,8(sp)
     4b8:	00c12223          	sw	a2,4(sp)
     4bc:	00c12783          	lw	a5,12(sp)
     4c0:	00f12c23          	sw	a5,24(sp)
     4c4:	00812783          	lw	a5,8(sp)
     4c8:	00f12a23          	sw	a5,20(sp)
     4cc:	00012e23          	sw	zero,28(sp)
     4d0:	0300006f          	j	500 <memcpy+0x54>
     4d4:	01412703          	lw	a4,20(sp)
     4d8:	01c12783          	lw	a5,28(sp)
     4dc:	00f70733          	add	a4,a4,a5
     4e0:	01812683          	lw	a3,24(sp)
     4e4:	01c12783          	lw	a5,28(sp)
     4e8:	00f687b3          	add	a5,a3,a5
     4ec:	00074703          	lbu	a4,0(a4)
     4f0:	00e78023          	sb	a4,0(a5)
     4f4:	01c12783          	lw	a5,28(sp)
     4f8:	00178793          	addi	a5,a5,1
     4fc:	00f12e23          	sw	a5,28(sp)
     500:	01c12703          	lw	a4,28(sp)
     504:	00412783          	lw	a5,4(sp)
     508:	fcf766e3          	bltu	a4,a5,4d4 <memcpy+0x28>
     50c:	00c12783          	lw	a5,12(sp)
     510:	00078513          	mv	a0,a5
     514:	02010113          	addi	sp,sp,32
     518:	00008067          	ret

0000051c <memcmp>:
     51c:	fe010113          	addi	sp,sp,-32
     520:	00a12623          	sw	a0,12(sp)
     524:	00b12423          	sw	a1,8(sp)
     528:	00c12223          	sw	a2,4(sp)
     52c:	00c12783          	lw	a5,12(sp)
     530:	00f12c23          	sw	a5,24(sp)
     534:	00812783          	lw	a5,8(sp)
     538:	00f12a23          	sw	a5,20(sp)
     53c:	00012e23          	sw	zero,28(sp)
     540:	0600006f          	j	5a0 <memcmp+0x84>
     544:	01812703          	lw	a4,24(sp)
     548:	01c12783          	lw	a5,28(sp)
     54c:	00f707b3          	add	a5,a4,a5
     550:	0007c703          	lbu	a4,0(a5)
     554:	01412683          	lw	a3,20(sp)
     558:	01c12783          	lw	a5,28(sp)
     55c:	00f687b3          	add	a5,a3,a5
     560:	0007c783          	lbu	a5,0(a5)
     564:	02f70863          	beq	a4,a5,594 <memcmp+0x78>
     568:	01812703          	lw	a4,24(sp)
     56c:	01c12783          	lw	a5,28(sp)
     570:	00f707b3          	add	a5,a4,a5
     574:	0007c783          	lbu	a5,0(a5)
     578:	00078693          	mv	a3,a5
     57c:	01412703          	lw	a4,20(sp)
     580:	01c12783          	lw	a5,28(sp)
     584:	00f707b3          	add	a5,a4,a5
     588:	0007c783          	lbu	a5,0(a5)
     58c:	40f687b3          	sub	a5,a3,a5
     590:	0200006f          	j	5b0 <memcmp+0x94>
     594:	01c12783          	lw	a5,28(sp)
     598:	00178793          	addi	a5,a5,1
     59c:	00f12e23          	sw	a5,28(sp)
     5a0:	01c12703          	lw	a4,28(sp)
     5a4:	00412783          	lw	a5,4(sp)
     5a8:	f8f76ee3          	bltu	a4,a5,544 <memcmp+0x28>
     5ac:	00000793          	li	a5,0
     5b0:	00078513          	mv	a0,a5
     5b4:	02010113          	addi	sp,sp,32
     5b8:	00008067          	ret

000005bc <strlen>:
     5bc:	fe010113          	addi	sp,sp,-32
     5c0:	00a12623          	sw	a0,12(sp)
     5c4:	00012e23          	sw	zero,28(sp)
     5c8:	0100006f          	j	5d8 <strlen+0x1c>
     5cc:	01c12783          	lw	a5,28(sp)
     5d0:	00178793          	addi	a5,a5,1
     5d4:	00f12e23          	sw	a5,28(sp)
     5d8:	00c12703          	lw	a4,12(sp)
     5dc:	01c12783          	lw	a5,28(sp)
     5e0:	00f707b3          	add	a5,a4,a5
     5e4:	0007c783          	lbu	a5,0(a5)
     5e8:	fe0792e3          	bnez	a5,5cc <strlen+0x10>
     5ec:	01c12783          	lw	a5,28(sp)
     5f0:	00078513          	mv	a0,a5
     5f4:	02010113          	addi	sp,sp,32
     5f8:	00008067          	ret

000005fc <strcmp>:
     5fc:	fe010113          	addi	sp,sp,-32
     600:	00112e23          	sw	ra,28(sp)
     604:	00a12623          	sw	a0,12(sp)
     608:	00b12423          	sw	a1,8(sp)
     60c:	00c12503          	lw	a0,12(sp)
     610:	fadff0ef          	jal	5bc <strlen>
     614:	00050793          	mv	a5,a0
     618:	00078613          	mv	a2,a5
     61c:	00812583          	lw	a1,8(sp)
     620:	00c12503          	lw	a0,12(sp)
     624:	ef9ff0ef          	jal	51c <memcmp>
     628:	00050793          	mv	a5,a0
     62c:	00078513          	mv	a0,a5
     630:	01c12083          	lw	ra,28(sp)
     634:	02010113          	addi	sp,sp,32
     638:	00008067          	ret

0000063c <malloc>:
     63c:	fe010113          	addi	sp,sp,-32
     640:	00a12623          	sw	a0,12(sp)
     644:	0001a783          	lw	a5,0(gp) # 10000800 <heap_memory_used>
     648:	00078713          	mv	a4,a5
     64c:	100007b7          	lui	a5,0x10000
     650:	00078793          	mv	a5,a5
     654:	00f707b3          	add	a5,a4,a5
     658:	00f12e23          	sw	a5,28(sp)
     65c:	0001a703          	lw	a4,0(gp) # 10000800 <heap_memory_used>
     660:	00c12783          	lw	a5,12(sp)
     664:	00f70733          	add	a4,a4,a5
     668:	00e1a023          	sw	a4,0(gp) # 10000800 <heap_memory_used>
     66c:	0001a703          	lw	a4,0(gp) # 10000800 <heap_memory_used>
     670:	000017b7          	lui	a5,0x1
     674:	80078793          	addi	a5,a5,-2048 # 800 <csr__cpu_fifo__rx__data_63_32_vp_t::csr__cpu_fifo__rx__data_63_32_vp_t(unsigned long*)+0x14>
     678:	00e7d463          	bge	a5,a4,680 <malloc+0x44>
     67c:	00100073          	ebreak
     680:	01c12783          	lw	a5,28(sp)
     684:	00078513          	mv	a0,a5
     688:	02010113          	addi	sp,sp,32
     68c:	00008067          	ret

00000690 <operator new(unsigned int)>:
     690:	fe010113          	addi	sp,sp,-32
     694:	00112e23          	sw	ra,28(sp)
     698:	00a12623          	sw	a0,12(sp)
     69c:	00c12783          	lw	a5,12(sp)
     6a0:	00078513          	mv	a0,a5
     6a4:	f99ff0ef          	jal	63c <malloc>
     6a8:	00050793          	mv	a5,a0
     6ac:	00078513          	mv	a0,a5
     6b0:	01c12083          	lw	ra,28(sp)
     6b4:	02010113          	addi	sp,sp,32
     6b8:	00008067          	ret

000006bc <operator delete(void*)>:
     6bc:	ff010113          	addi	sp,sp,-16
     6c0:	00a12623          	sw	a0,12(sp)
     6c4:	00000013          	nop
     6c8:	01010113          	addi	sp,sp,16
     6cc:	00008067          	ret

000006d0 <delay(unsigned long)>:
     6d0:	fe010113          	addi	sp,sp,-32
     6d4:	00a12623          	sw	a0,12(sp)
     6d8:	00012e23          	sw	zero,28(sp)
     6dc:	0100006f          	j	6ec <delay(unsigned long)+0x1c>
     6e0:	01c12783          	lw	a5,28(sp)
     6e4:	00178793          	addi	a5,a5,1
     6e8:	00f12e23          	sw	a5,28(sp)
     6ec:	01c12783          	lw	a5,28(sp)
     6f0:	00c12703          	lw	a4,12(sp)
     6f4:	00e7b7b3          	sltu	a5,a5,a4
     6f8:	0ff7f793          	zext.b	a5,a5
     6fc:	fe0792e3          	bnez	a5,6e0 <delay(unsigned long)+0x10>
     700:	00000013          	nop
     704:	00000013          	nop
     708:	02010113          	addi	sp,sp,32
     70c:	00008067          	ret

00000710 <main>:
     710:	fe010113          	addi	sp,sp,-32
     714:	00112e23          	sw	ra,28(sp)
     718:	00812c23          	sw	s0,24(sp)
     71c:	02400513          	li	a0,36
     720:	f71ff0ef          	jal	690 <operator new(unsigned int)>
     724:	00050793          	mv	a5,a0
     728:	00078413          	mv	s0,a5
     72c:	200005b7          	lui	a1,0x20000
     730:	00040513          	mv	a0,s0
     734:	0e5000ef          	jal	1018 <csr_vp_t::csr_vp_t(unsigned long*)>
     738:	00812623          	sw	s0,12(sp)
     73c:	00c12783          	lw	a5,12(sp)
     740:	0087a783          	lw	a5,8(a5)
     744:	00100593          	li	a1,1
     748:	00078513          	mv	a0,a5
     74c:	784000ef          	jal	ed0 <csr__gpio_vp_t::led2(unsigned long)>
     750:	00c12783          	lw	a5,12(sp)
     754:	0087a403          	lw	s0,8(a5)
     758:	00c12783          	lw	a5,12(sp)
     75c:	0087a783          	lw	a5,8(a5)
     760:	00078513          	mv	a0,a5
     764:	700000ef          	jal	e64 <csr__gpio_vp_t::key1()>
     768:	00050793          	mv	a5,a0
     76c:	00078593          	mv	a1,a5
     770:	00040513          	mv	a0,s0
     774:	718000ef          	jal	e8c <csr__gpio_vp_t::led1(unsigned long)>
     778:	00a00513          	li	a0,10
     77c:	f55ff0ef          	jal	6d0 <delay(unsigned long)>
     780:	00c12783          	lw	a5,12(sp)
     784:	0087a783          	lw	a5,8(a5)
     788:	00000593          	li	a1,0
     78c:	00078513          	mv	a0,a5
     790:	740000ef          	jal	ed0 <csr__gpio_vp_t::led2(unsigned long)>
     794:	00c12783          	lw	a5,12(sp)
     798:	0087a403          	lw	s0,8(a5)
     79c:	00c12783          	lw	a5,12(sp)
     7a0:	0087a783          	lw	a5,8(a5)
     7a4:	00078513          	mv	a0,a5
     7a8:	6bc000ef          	jal	e64 <csr__gpio_vp_t::key1()>
     7ac:	00050793          	mv	a5,a0
     7b0:	00078593          	mv	a1,a5
     7b4:	00040513          	mv	a0,s0
     7b8:	6d4000ef          	jal	e8c <csr__gpio_vp_t::led1(unsigned long)>
     7bc:	00a00513          	li	a0,10
     7c0:	f11ff0ef          	jal	6d0 <delay(unsigned long)>
     7c4:	f79ff06f          	j	73c <main+0x2c>

000007c8 <csr__cpu_fifo__rx__data_31_0_vp_t::csr__cpu_fifo__rx__data_31_0_vp_t(unsigned long*)>:
     7c8:	ff010113          	addi	sp,sp,-16
     7cc:	00a12623          	sw	a0,12(sp)
     7d0:	00b12423          	sw	a1,8(sp)
     7d4:	00c12783          	lw	a5,12(sp)
     7d8:	00812703          	lw	a4,8(sp)
     7dc:	00e7a023          	sw	a4,0(a5)
     7e0:	00000013          	nop
     7e4:	01010113          	addi	sp,sp,16
     7e8:	00008067          	ret

000007ec <csr__cpu_fifo__rx__data_63_32_vp_t::csr__cpu_fifo__rx__data_63_32_vp_t(unsigned long*)>:
     7ec:	ff010113          	addi	sp,sp,-16
     7f0:	00a12623          	sw	a0,12(sp)
     7f4:	00b12423          	sw	a1,8(sp)
     7f8:	00c12783          	lw	a5,12(sp)
     7fc:	00812703          	lw	a4,8(sp)
     800:	00e7a023          	sw	a4,0(a5)
     804:	00000013          	nop
     808:	01010113          	addi	sp,sp,16
     80c:	00008067          	ret

00000810 <csr__cpu_fifo__rx__data_95_64_vp_t::csr__cpu_fifo__rx__data_95_64_vp_t(unsigned long*)>:
     810:	ff010113          	addi	sp,sp,-16
     814:	00a12623          	sw	a0,12(sp)
     818:	00b12423          	sw	a1,8(sp)
     81c:	00c12783          	lw	a5,12(sp)
     820:	00812703          	lw	a4,8(sp)
     824:	00e7a023          	sw	a4,0(a5)
     828:	00000013          	nop
     82c:	01010113          	addi	sp,sp,16
     830:	00008067          	ret

00000834 <csr__cpu_fifo__rx__data_127_96_vp_t::csr__cpu_fifo__rx__data_127_96_vp_t(unsigned long*)>:
     834:	ff010113          	addi	sp,sp,-16
     838:	00a12623          	sw	a0,12(sp)
     83c:	00b12423          	sw	a1,8(sp)
     840:	00c12783          	lw	a5,12(sp)
     844:	00812703          	lw	a4,8(sp)
     848:	00e7a023          	sw	a4,0(a5)
     84c:	00000013          	nop
     850:	01010113          	addi	sp,sp,16
     854:	00008067          	ret

00000858 <csr__cpu_fifo__rx__control_vp_t::csr__cpu_fifo__rx__control_vp_t(unsigned long*)>:
     858:	ff010113          	addi	sp,sp,-16
     85c:	00a12623          	sw	a0,12(sp)
     860:	00b12423          	sw	a1,8(sp)
     864:	00c12783          	lw	a5,12(sp)
     868:	00812703          	lw	a4,8(sp)
     86c:	00e7a023          	sw	a4,0(a5)
     870:	00000013          	nop
     874:	01010113          	addi	sp,sp,16
     878:	00008067          	ret

0000087c <csr__cpu_fifo__rx__trigger_vp_t::csr__cpu_fifo__rx__trigger_vp_t(unsigned long*)>:
     87c:	ff010113          	addi	sp,sp,-16
     880:	00a12623          	sw	a0,12(sp)
     884:	00b12423          	sw	a1,8(sp)
     888:	00c12783          	lw	a5,12(sp)
     88c:	00812703          	lw	a4,8(sp)
     890:	00e7a023          	sw	a4,0(a5)
     894:	00000013          	nop
     898:	01010113          	addi	sp,sp,16
     89c:	00008067          	ret

000008a0 <csr__cpu_fifo__rx__status_vp_t::csr__cpu_fifo__rx__status_vp_t(unsigned long*)>:
     8a0:	ff010113          	addi	sp,sp,-16
     8a4:	00a12623          	sw	a0,12(sp)
     8a8:	00b12423          	sw	a1,8(sp)
     8ac:	00c12783          	lw	a5,12(sp)
     8b0:	00812703          	lw	a4,8(sp)
     8b4:	00e7a023          	sw	a4,0(a5)
     8b8:	00000013          	nop
     8bc:	01010113          	addi	sp,sp,16
     8c0:	00008067          	ret

000008c4 <csr__cpu_fifo__rx_vp_t::csr__cpu_fifo__rx_vp_t(unsigned long*)>:
     8c4:	fe010113          	addi	sp,sp,-32
     8c8:	00112e23          	sw	ra,28(sp)
     8cc:	00812c23          	sw	s0,24(sp)
     8d0:	00a12623          	sw	a0,12(sp)
     8d4:	00b12423          	sw	a1,8(sp)
     8d8:	00400513          	li	a0,4
     8dc:	db5ff0ef          	jal	690 <operator new(unsigned int)>
     8e0:	00050793          	mv	a5,a0
     8e4:	00078413          	mv	s0,a5
     8e8:	00812583          	lw	a1,8(sp)
     8ec:	00040513          	mv	a0,s0
     8f0:	ed9ff0ef          	jal	7c8 <csr__cpu_fifo__rx__data_31_0_vp_t::csr__cpu_fifo__rx__data_31_0_vp_t(unsigned long*)>
     8f4:	00c12783          	lw	a5,12(sp)
     8f8:	0087a023          	sw	s0,0(a5)
     8fc:	00400513          	li	a0,4
     900:	d91ff0ef          	jal	690 <operator new(unsigned int)>
     904:	00050793          	mv	a5,a0
     908:	00078413          	mv	s0,a5
     90c:	00812783          	lw	a5,8(sp)
     910:	00478793          	addi	a5,a5,4
     914:	00078593          	mv	a1,a5
     918:	00040513          	mv	a0,s0
     91c:	ed1ff0ef          	jal	7ec <csr__cpu_fifo__rx__data_63_32_vp_t::csr__cpu_fifo__rx__data_63_32_vp_t(unsigned long*)>
     920:	00c12783          	lw	a5,12(sp)
     924:	0087a223          	sw	s0,4(a5)
     928:	00400513          	li	a0,4
     92c:	d65ff0ef          	jal	690 <operator new(unsigned int)>
     930:	00050793          	mv	a5,a0
     934:	00078413          	mv	s0,a5
     938:	00812783          	lw	a5,8(sp)
     93c:	00878793          	addi	a5,a5,8
     940:	00078593          	mv	a1,a5
     944:	00040513          	mv	a0,s0
     948:	ec9ff0ef          	jal	810 <csr__cpu_fifo__rx__data_95_64_vp_t::csr__cpu_fifo__rx__data_95_64_vp_t(unsigned long*)>
     94c:	00c12783          	lw	a5,12(sp)
     950:	0087a423          	sw	s0,8(a5)
     954:	00400513          	li	a0,4
     958:	d39ff0ef          	jal	690 <operator new(unsigned int)>
     95c:	00050793          	mv	a5,a0
     960:	00078413          	mv	s0,a5
     964:	00812783          	lw	a5,8(sp)
     968:	00c78793          	addi	a5,a5,12
     96c:	00078593          	mv	a1,a5
     970:	00040513          	mv	a0,s0
     974:	ec1ff0ef          	jal	834 <csr__cpu_fifo__rx__data_127_96_vp_t::csr__cpu_fifo__rx__data_127_96_vp_t(unsigned long*)>
     978:	00c12783          	lw	a5,12(sp)
     97c:	0087a623          	sw	s0,12(a5)
     980:	00400513          	li	a0,4
     984:	d0dff0ef          	jal	690 <operator new(unsigned int)>
     988:	00050793          	mv	a5,a0
     98c:	00078413          	mv	s0,a5
     990:	00812783          	lw	a5,8(sp)
     994:	01078793          	addi	a5,a5,16
     998:	00078593          	mv	a1,a5
     99c:	00040513          	mv	a0,s0
     9a0:	eb9ff0ef          	jal	858 <csr__cpu_fifo__rx__control_vp_t::csr__cpu_fifo__rx__control_vp_t(unsigned long*)>
     9a4:	00c12783          	lw	a5,12(sp)
     9a8:	0087a823          	sw	s0,16(a5)
     9ac:	00400513          	li	a0,4
     9b0:	ce1ff0ef          	jal	690 <operator new(unsigned int)>
     9b4:	00050793          	mv	a5,a0
     9b8:	00078413          	mv	s0,a5
     9bc:	00812783          	lw	a5,8(sp)
     9c0:	01478793          	addi	a5,a5,20
     9c4:	00078593          	mv	a1,a5
     9c8:	00040513          	mv	a0,s0
     9cc:	eb1ff0ef          	jal	87c <csr__cpu_fifo__rx__trigger_vp_t::csr__cpu_fifo__rx__trigger_vp_t(unsigned long*)>
     9d0:	00c12783          	lw	a5,12(sp)
     9d4:	0087aa23          	sw	s0,20(a5)
     9d8:	00400513          	li	a0,4
     9dc:	cb5ff0ef          	jal	690 <operator new(unsigned int)>
     9e0:	00050793          	mv	a5,a0
     9e4:	00078413          	mv	s0,a5
     9e8:	00812783          	lw	a5,8(sp)
     9ec:	01878793          	addi	a5,a5,24
     9f0:	00078593          	mv	a1,a5
     9f4:	00040513          	mv	a0,s0
     9f8:	ea9ff0ef          	jal	8a0 <csr__cpu_fifo__rx__status_vp_t::csr__cpu_fifo__rx__status_vp_t(unsigned long*)>
     9fc:	00c12783          	lw	a5,12(sp)
     a00:	0087ac23          	sw	s0,24(a5)
     a04:	00000013          	nop
     a08:	01c12083          	lw	ra,28(sp)
     a0c:	01812403          	lw	s0,24(sp)
     a10:	02010113          	addi	sp,sp,32
     a14:	00008067          	ret

00000a18 <csr__cpu_fifo__tx__data_31_0_vp_t::csr__cpu_fifo__tx__data_31_0_vp_t(unsigned long*)>:
     a18:	ff010113          	addi	sp,sp,-16
     a1c:	00a12623          	sw	a0,12(sp)
     a20:	00b12423          	sw	a1,8(sp)
     a24:	00c12783          	lw	a5,12(sp)
     a28:	00812703          	lw	a4,8(sp)
     a2c:	00e7a023          	sw	a4,0(a5)
     a30:	00000013          	nop
     a34:	01010113          	addi	sp,sp,16
     a38:	00008067          	ret

00000a3c <csr__cpu_fifo__tx__data_63_32_vp_t::csr__cpu_fifo__tx__data_63_32_vp_t(unsigned long*)>:
     a3c:	ff010113          	addi	sp,sp,-16
     a40:	00a12623          	sw	a0,12(sp)
     a44:	00b12423          	sw	a1,8(sp)
     a48:	00c12783          	lw	a5,12(sp)
     a4c:	00812703          	lw	a4,8(sp)
     a50:	00e7a023          	sw	a4,0(a5)
     a54:	00000013          	nop
     a58:	01010113          	addi	sp,sp,16
     a5c:	00008067          	ret

00000a60 <csr__cpu_fifo__tx__data_95_64_vp_t::csr__cpu_fifo__tx__data_95_64_vp_t(unsigned long*)>:
     a60:	ff010113          	addi	sp,sp,-16
     a64:	00a12623          	sw	a0,12(sp)
     a68:	00b12423          	sw	a1,8(sp)
     a6c:	00c12783          	lw	a5,12(sp)
     a70:	00812703          	lw	a4,8(sp)
     a74:	00e7a023          	sw	a4,0(a5)
     a78:	00000013          	nop
     a7c:	01010113          	addi	sp,sp,16
     a80:	00008067          	ret

00000a84 <csr__cpu_fifo__tx__data_127_96_vp_t::csr__cpu_fifo__tx__data_127_96_vp_t(unsigned long*)>:
     a84:	ff010113          	addi	sp,sp,-16
     a88:	00a12623          	sw	a0,12(sp)
     a8c:	00b12423          	sw	a1,8(sp)
     a90:	00c12783          	lw	a5,12(sp)
     a94:	00812703          	lw	a4,8(sp)
     a98:	00e7a023          	sw	a4,0(a5)
     a9c:	00000013          	nop
     aa0:	01010113          	addi	sp,sp,16
     aa4:	00008067          	ret

00000aa8 <csr__cpu_fifo__tx__control_vp_t::csr__cpu_fifo__tx__control_vp_t(unsigned long*)>:
     aa8:	ff010113          	addi	sp,sp,-16
     aac:	00a12623          	sw	a0,12(sp)
     ab0:	00b12423          	sw	a1,8(sp)
     ab4:	00c12783          	lw	a5,12(sp)
     ab8:	00812703          	lw	a4,8(sp)
     abc:	00e7a023          	sw	a4,0(a5)
     ac0:	00000013          	nop
     ac4:	01010113          	addi	sp,sp,16
     ac8:	00008067          	ret

00000acc <csr__cpu_fifo__tx__trigger_vp_t::csr__cpu_fifo__tx__trigger_vp_t(unsigned long*)>:
     acc:	ff010113          	addi	sp,sp,-16
     ad0:	00a12623          	sw	a0,12(sp)
     ad4:	00b12423          	sw	a1,8(sp)
     ad8:	00c12783          	lw	a5,12(sp)
     adc:	00812703          	lw	a4,8(sp)
     ae0:	00e7a023          	sw	a4,0(a5)
     ae4:	00000013          	nop
     ae8:	01010113          	addi	sp,sp,16
     aec:	00008067          	ret

00000af0 <csr__cpu_fifo__tx__status_vp_t::csr__cpu_fifo__tx__status_vp_t(unsigned long*)>:
     af0:	ff010113          	addi	sp,sp,-16
     af4:	00a12623          	sw	a0,12(sp)
     af8:	00b12423          	sw	a1,8(sp)
     afc:	00c12783          	lw	a5,12(sp)
     b00:	00812703          	lw	a4,8(sp)
     b04:	00e7a023          	sw	a4,0(a5)
     b08:	00000013          	nop
     b0c:	01010113          	addi	sp,sp,16
     b10:	00008067          	ret

00000b14 <csr__cpu_fifo__tx_vp_t::csr__cpu_fifo__tx_vp_t(unsigned long*)>:
     b14:	fe010113          	addi	sp,sp,-32
     b18:	00112e23          	sw	ra,28(sp)
     b1c:	00812c23          	sw	s0,24(sp)
     b20:	00a12623          	sw	a0,12(sp)
     b24:	00b12423          	sw	a1,8(sp)
     b28:	00400513          	li	a0,4
     b2c:	b65ff0ef          	jal	690 <operator new(unsigned int)>
     b30:	00050793          	mv	a5,a0
     b34:	00078413          	mv	s0,a5
     b38:	00812583          	lw	a1,8(sp)
     b3c:	00040513          	mv	a0,s0
     b40:	ed9ff0ef          	jal	a18 <csr__cpu_fifo__tx__data_31_0_vp_t::csr__cpu_fifo__tx__data_31_0_vp_t(unsigned long*)>
     b44:	00c12783          	lw	a5,12(sp)
     b48:	0087a023          	sw	s0,0(a5)
     b4c:	00400513          	li	a0,4
     b50:	b41ff0ef          	jal	690 <operator new(unsigned int)>
     b54:	00050793          	mv	a5,a0
     b58:	00078413          	mv	s0,a5
     b5c:	00812783          	lw	a5,8(sp)
     b60:	00478793          	addi	a5,a5,4
     b64:	00078593          	mv	a1,a5
     b68:	00040513          	mv	a0,s0
     b6c:	ed1ff0ef          	jal	a3c <csr__cpu_fifo__tx__data_63_32_vp_t::csr__cpu_fifo__tx__data_63_32_vp_t(unsigned long*)>
     b70:	00c12783          	lw	a5,12(sp)
     b74:	0087a223          	sw	s0,4(a5)
     b78:	00400513          	li	a0,4
     b7c:	b15ff0ef          	jal	690 <operator new(unsigned int)>
     b80:	00050793          	mv	a5,a0
     b84:	00078413          	mv	s0,a5
     b88:	00812783          	lw	a5,8(sp)
     b8c:	00878793          	addi	a5,a5,8
     b90:	00078593          	mv	a1,a5
     b94:	00040513          	mv	a0,s0
     b98:	ec9ff0ef          	jal	a60 <csr__cpu_fifo__tx__data_95_64_vp_t::csr__cpu_fifo__tx__data_95_64_vp_t(unsigned long*)>
     b9c:	00c12783          	lw	a5,12(sp)
     ba0:	0087a423          	sw	s0,8(a5)
     ba4:	00400513          	li	a0,4
     ba8:	ae9ff0ef          	jal	690 <operator new(unsigned int)>
     bac:	00050793          	mv	a5,a0
     bb0:	00078413          	mv	s0,a5
     bb4:	00812783          	lw	a5,8(sp)
     bb8:	00c78793          	addi	a5,a5,12
     bbc:	00078593          	mv	a1,a5
     bc0:	00040513          	mv	a0,s0
     bc4:	ec1ff0ef          	jal	a84 <csr__cpu_fifo__tx__data_127_96_vp_t::csr__cpu_fifo__tx__data_127_96_vp_t(unsigned long*)>
     bc8:	00c12783          	lw	a5,12(sp)
     bcc:	0087a623          	sw	s0,12(a5)
     bd0:	00400513          	li	a0,4
     bd4:	abdff0ef          	jal	690 <operator new(unsigned int)>
     bd8:	00050793          	mv	a5,a0
     bdc:	00078413          	mv	s0,a5
     be0:	00812783          	lw	a5,8(sp)
     be4:	01078793          	addi	a5,a5,16
     be8:	00078593          	mv	a1,a5
     bec:	00040513          	mv	a0,s0
     bf0:	eb9ff0ef          	jal	aa8 <csr__cpu_fifo__tx__control_vp_t::csr__cpu_fifo__tx__control_vp_t(unsigned long*)>
     bf4:	00c12783          	lw	a5,12(sp)
     bf8:	0087a823          	sw	s0,16(a5)
     bfc:	00400513          	li	a0,4
     c00:	a91ff0ef          	jal	690 <operator new(unsigned int)>
     c04:	00050793          	mv	a5,a0
     c08:	00078413          	mv	s0,a5
     c0c:	00812783          	lw	a5,8(sp)
     c10:	01478793          	addi	a5,a5,20
     c14:	00078593          	mv	a1,a5
     c18:	00040513          	mv	a0,s0
     c1c:	eb1ff0ef          	jal	acc <csr__cpu_fifo__tx__trigger_vp_t::csr__cpu_fifo__tx__trigger_vp_t(unsigned long*)>
     c20:	00c12783          	lw	a5,12(sp)
     c24:	0087aa23          	sw	s0,20(a5)
     c28:	00400513          	li	a0,4
     c2c:	a65ff0ef          	jal	690 <operator new(unsigned int)>
     c30:	00050793          	mv	a5,a0
     c34:	00078413          	mv	s0,a5
     c38:	00812783          	lw	a5,8(sp)
     c3c:	01878793          	addi	a5,a5,24
     c40:	00078593          	mv	a1,a5
     c44:	00040513          	mv	a0,s0
     c48:	ea9ff0ef          	jal	af0 <csr__cpu_fifo__tx__status_vp_t::csr__cpu_fifo__tx__status_vp_t(unsigned long*)>
     c4c:	00c12783          	lw	a5,12(sp)
     c50:	0087ac23          	sw	s0,24(a5)
     c54:	00000013          	nop
     c58:	01c12083          	lw	ra,28(sp)
     c5c:	01812403          	lw	s0,24(sp)
     c60:	02010113          	addi	sp,sp,32
     c64:	00008067          	ret

00000c68 <csr__cpu_fifo_vp_t::csr__cpu_fifo_vp_t(unsigned long*)>:
     c68:	fe010113          	addi	sp,sp,-32
     c6c:	00112e23          	sw	ra,28(sp)
     c70:	00812c23          	sw	s0,24(sp)
     c74:	00a12623          	sw	a0,12(sp)
     c78:	00b12423          	sw	a1,8(sp)
     c7c:	01c00513          	li	a0,28
     c80:	a11ff0ef          	jal	690 <operator new(unsigned int)>
     c84:	00050793          	mv	a5,a0
     c88:	00078413          	mv	s0,a5
     c8c:	00812583          	lw	a1,8(sp)
     c90:	00040513          	mv	a0,s0
     c94:	c31ff0ef          	jal	8c4 <csr__cpu_fifo__rx_vp_t::csr__cpu_fifo__rx_vp_t(unsigned long*)>
     c98:	00c12783          	lw	a5,12(sp)
     c9c:	0087a023          	sw	s0,0(a5)
     ca0:	01c00513          	li	a0,28
     ca4:	9edff0ef          	jal	690 <operator new(unsigned int)>
     ca8:	00050793          	mv	a5,a0
     cac:	00078413          	mv	s0,a5
     cb0:	00812783          	lw	a5,8(sp)
     cb4:	01c78793          	addi	a5,a5,28
     cb8:	00078593          	mv	a1,a5
     cbc:	00040513          	mv	a0,s0
     cc0:	e55ff0ef          	jal	b14 <csr__cpu_fifo__tx_vp_t::csr__cpu_fifo__tx_vp_t(unsigned long*)>
     cc4:	00c12783          	lw	a5,12(sp)
     cc8:	0087a223          	sw	s0,4(a5)
     ccc:	00000013          	nop
     cd0:	01c12083          	lw	ra,28(sp)
     cd4:	01812403          	lw	s0,24(sp)
     cd8:	02010113          	addi	sp,sp,32
     cdc:	00008067          	ret

00000ce0 <csr__uart__rx_vp_t::csr__uart__rx_vp_t(unsigned long*)>:
     ce0:	ff010113          	addi	sp,sp,-16
     ce4:	00a12623          	sw	a0,12(sp)
     ce8:	00b12423          	sw	a1,8(sp)
     cec:	00c12783          	lw	a5,12(sp)
     cf0:	00812703          	lw	a4,8(sp)
     cf4:	00e7a023          	sw	a4,0(a5)
     cf8:	00000013          	nop
     cfc:	01010113          	addi	sp,sp,16
     d00:	00008067          	ret

00000d04 <csr__uart__rx_trigger_read_2925067f_vp_t::csr__uart__rx_trigger_read_2925067f_vp_t(unsigned long*)>:
     d04:	ff010113          	addi	sp,sp,-16
     d08:	00a12623          	sw	a0,12(sp)
     d0c:	00b12423          	sw	a1,8(sp)
     d10:	00c12783          	lw	a5,12(sp)
     d14:	00812703          	lw	a4,8(sp)
     d18:	00e7a023          	sw	a4,0(a5)
     d1c:	00000013          	nop
     d20:	01010113          	addi	sp,sp,16
     d24:	00008067          	ret

00000d28 <csr__uart__tx_vp_t::csr__uart__tx_vp_t(unsigned long*)>:
     d28:	ff010113          	addi	sp,sp,-16
     d2c:	00a12623          	sw	a0,12(sp)
     d30:	00b12423          	sw	a1,8(sp)
     d34:	00c12783          	lw	a5,12(sp)
     d38:	00812703          	lw	a4,8(sp)
     d3c:	00e7a023          	sw	a4,0(a5)
     d40:	00000013          	nop
     d44:	01010113          	addi	sp,sp,16
     d48:	00008067          	ret

00000d4c <csr__uart__tx_trigger_write_d2a2fe0e_vp_t::csr__uart__tx_trigger_write_d2a2fe0e_vp_t(unsigned long*)>:
     d4c:	ff010113          	addi	sp,sp,-16
     d50:	00a12623          	sw	a0,12(sp)
     d54:	00b12423          	sw	a1,8(sp)
     d58:	00c12783          	lw	a5,12(sp)
     d5c:	00812703          	lw	a4,8(sp)
     d60:	00e7a023          	sw	a4,0(a5)
     d64:	00000013          	nop
     d68:	01010113          	addi	sp,sp,16
     d6c:	00008067          	ret

00000d70 <csr__uart_vp_t::csr__uart_vp_t(unsigned long*)>:
     d70:	fe010113          	addi	sp,sp,-32
     d74:	00112e23          	sw	ra,28(sp)
     d78:	00812c23          	sw	s0,24(sp)
     d7c:	00a12623          	sw	a0,12(sp)
     d80:	00b12423          	sw	a1,8(sp)
     d84:	00400513          	li	a0,4
     d88:	909ff0ef          	jal	690 <operator new(unsigned int)>
     d8c:	00050793          	mv	a5,a0
     d90:	00078413          	mv	s0,a5
     d94:	00812583          	lw	a1,8(sp)
     d98:	00040513          	mv	a0,s0
     d9c:	f45ff0ef          	jal	ce0 <csr__uart__rx_vp_t::csr__uart__rx_vp_t(unsigned long*)>
     da0:	00c12783          	lw	a5,12(sp)
     da4:	0087a023          	sw	s0,0(a5)
     da8:	00400513          	li	a0,4
     dac:	8e5ff0ef          	jal	690 <operator new(unsigned int)>
     db0:	00050793          	mv	a5,a0
     db4:	00078413          	mv	s0,a5
     db8:	00812783          	lw	a5,8(sp)
     dbc:	00478793          	addi	a5,a5,4
     dc0:	00078593          	mv	a1,a5
     dc4:	00040513          	mv	a0,s0
     dc8:	f3dff0ef          	jal	d04 <csr__uart__rx_trigger_read_2925067f_vp_t::csr__uart__rx_trigger_read_2925067f_vp_t(unsigned long*)>
     dcc:	00c12783          	lw	a5,12(sp)
     dd0:	0087a223          	sw	s0,4(a5)
     dd4:	00400513          	li	a0,4
     dd8:	8b9ff0ef          	jal	690 <operator new(unsigned int)>
     ddc:	00050793          	mv	a5,a0
     de0:	00078413          	mv	s0,a5
     de4:	00812783          	lw	a5,8(sp)
     de8:	00878793          	addi	a5,a5,8
     dec:	00078593          	mv	a1,a5
     df0:	00040513          	mv	a0,s0
     df4:	f35ff0ef          	jal	d28 <csr__uart__tx_vp_t::csr__uart__tx_vp_t(unsigned long*)>
     df8:	00c12783          	lw	a5,12(sp)
     dfc:	0087a423          	sw	s0,8(a5)
     e00:	00400513          	li	a0,4
     e04:	88dff0ef          	jal	690 <operator new(unsigned int)>
     e08:	00050793          	mv	a5,a0
     e0c:	00078413          	mv	s0,a5
     e10:	00812783          	lw	a5,8(sp)
     e14:	00c78793          	addi	a5,a5,12
     e18:	00078593          	mv	a1,a5
     e1c:	00040513          	mv	a0,s0
     e20:	f2dff0ef          	jal	d4c <csr__uart__tx_trigger_write_d2a2fe0e_vp_t::csr__uart__tx_trigger_write_d2a2fe0e_vp_t(unsigned long*)>
     e24:	00c12783          	lw	a5,12(sp)
     e28:	0087a623          	sw	s0,12(a5)
     e2c:	00000013          	nop
     e30:	01c12083          	lw	ra,28(sp)
     e34:	01812403          	lw	s0,24(sp)
     e38:	02010113          	addi	sp,sp,32
     e3c:	00008067          	ret

00000e40 <csr__gpio_vp_t::csr__gpio_vp_t(unsigned long*)>:
     e40:	ff010113          	addi	sp,sp,-16
     e44:	00a12623          	sw	a0,12(sp)
     e48:	00b12423          	sw	a1,8(sp)
     e4c:	00c12783          	lw	a5,12(sp)
     e50:	00812703          	lw	a4,8(sp)
     e54:	00e7a023          	sw	a4,0(a5)
     e58:	00000013          	nop
     e5c:	01010113          	addi	sp,sp,16
     e60:	00008067          	ret

00000e64 <csr__gpio_vp_t::key1()>:
     e64:	ff010113          	addi	sp,sp,-16
     e68:	00a12623          	sw	a0,12(sp)
     e6c:	00c12783          	lw	a5,12(sp)
     e70:	0007a783          	lw	a5,0(a5)
     e74:	0007a783          	lw	a5,0(a5)
     e78:	0017f793          	andi	a5,a5,1
     e7c:	0ff7f793          	zext.b	a5,a5
     e80:	00078513          	mv	a0,a5
     e84:	01010113          	addi	sp,sp,16
     e88:	00008067          	ret

00000e8c <csr__gpio_vp_t::led1(unsigned long)>:
     e8c:	ff010113          	addi	sp,sp,-16
     e90:	00a12623          	sw	a0,12(sp)
     e94:	00b12423          	sw	a1,8(sp)
     e98:	00c12783          	lw	a5,12(sp)
     e9c:	0007a783          	lw	a5,0(a5)
     ea0:	00812703          	lw	a4,8(sp)
     ea4:	00177713          	andi	a4,a4,1
     ea8:	0ff77713          	zext.b	a4,a4
     eac:	00177713          	andi	a4,a4,1
     eb0:	00871713          	slli	a4,a4,0x8
     eb4:	0007a683          	lw	a3,0(a5)
     eb8:	eff6f693          	andi	a3,a3,-257
     ebc:	00e6e733          	or	a4,a3,a4
     ec0:	00e7a023          	sw	a4,0(a5)
     ec4:	00000013          	nop
     ec8:	01010113          	addi	sp,sp,16
     ecc:	00008067          	ret

00000ed0 <csr__gpio_vp_t::led2(unsigned long)>:
     ed0:	ff010113          	addi	sp,sp,-16
     ed4:	00a12623          	sw	a0,12(sp)
     ed8:	00b12423          	sw	a1,8(sp)
     edc:	00c12783          	lw	a5,12(sp)
     ee0:	0007a783          	lw	a5,0(a5)
     ee4:	00812703          	lw	a4,8(sp)
     ee8:	00177713          	andi	a4,a4,1
     eec:	0ff77713          	zext.b	a4,a4
     ef0:	00177713          	andi	a4,a4,1
     ef4:	00971713          	slli	a4,a4,0x9
     ef8:	0007a683          	lw	a3,0(a5)
     efc:	dff6f693          	andi	a3,a3,-513
     f00:	00e6e733          	or	a4,a3,a4
     f04:	00e7a023          	sw	a4,0(a5)
     f08:	00000013          	nop
     f0c:	01010113          	addi	sp,sp,16
     f10:	00008067          	ret

00000f14 <csr__ethernet__status_vp_t::csr__ethernet__status_vp_t(unsigned long*)>:
     f14:	ff010113          	addi	sp,sp,-16
     f18:	00a12623          	sw	a0,12(sp)
     f1c:	00b12423          	sw	a1,8(sp)
     f20:	00c12783          	lw	a5,12(sp)
     f24:	00812703          	lw	a4,8(sp)
     f28:	00e7a023          	sw	a4,0(a5)
     f2c:	00000013          	nop
     f30:	01010113          	addi	sp,sp,16
     f34:	00008067          	ret

00000f38 <csr__ethernet_vp_t::csr__ethernet_vp_t(unsigned long*)>:
     f38:	fe010113          	addi	sp,sp,-32
     f3c:	00112e23          	sw	ra,28(sp)
     f40:	00812c23          	sw	s0,24(sp)
     f44:	00a12623          	sw	a0,12(sp)
     f48:	00b12423          	sw	a1,8(sp)
     f4c:	00400513          	li	a0,4
     f50:	f40ff0ef          	jal	690 <operator new(unsigned int)>
     f54:	00050793          	mv	a5,a0
     f58:	00078413          	mv	s0,a5
     f5c:	00812583          	lw	a1,8(sp)
     f60:	00040513          	mv	a0,s0
     f64:	fb1ff0ef          	jal	f14 <csr__ethernet__status_vp_t::csr__ethernet__status_vp_t(unsigned long*)>
     f68:	00c12783          	lw	a5,12(sp)
     f6c:	0087a023          	sw	s0,0(a5)
     f70:	00000013          	nop
     f74:	01c12083          	lw	ra,28(sp)
     f78:	01812403          	lw	s0,24(sp)
     f7c:	02010113          	addi	sp,sp,32
     f80:	00008067          	ret

00000f84 <csr__dpe__fcr_vp_t::csr__dpe__fcr_vp_t(unsigned long*)>:
     f84:	ff010113          	addi	sp,sp,-16
     f88:	00a12623          	sw	a0,12(sp)
     f8c:	00b12423          	sw	a1,8(sp)
     f90:	00c12783          	lw	a5,12(sp)
     f94:	00812703          	lw	a4,8(sp)
     f98:	00e7a023          	sw	a4,0(a5)
     f9c:	00000013          	nop
     fa0:	01010113          	addi	sp,sp,16
     fa4:	00008067          	ret

00000fa8 <csr__dpe_vp_t::csr__dpe_vp_t(unsigned long*)>:
     fa8:	fe010113          	addi	sp,sp,-32
     fac:	00112e23          	sw	ra,28(sp)
     fb0:	00812c23          	sw	s0,24(sp)
     fb4:	00a12623          	sw	a0,12(sp)
     fb8:	00b12423          	sw	a1,8(sp)
     fbc:	00400513          	li	a0,4
     fc0:	ed0ff0ef          	jal	690 <operator new(unsigned int)>
     fc4:	00050793          	mv	a5,a0
     fc8:	00078413          	mv	s0,a5
     fcc:	00812583          	lw	a1,8(sp)
     fd0:	00040513          	mv	a0,s0
     fd4:	fb1ff0ef          	jal	f84 <csr__dpe__fcr_vp_t::csr__dpe__fcr_vp_t(unsigned long*)>
     fd8:	00c12783          	lw	a5,12(sp)
     fdc:	0087a023          	sw	s0,0(a5)
     fe0:	00000013          	nop
     fe4:	01c12083          	lw	ra,28(sp)
     fe8:	01812403          	lw	s0,24(sp)
     fec:	02010113          	addi	sp,sp,32
     ff0:	00008067          	ret

00000ff4 <csr__hwid_vp_t::csr__hwid_vp_t(unsigned long*)>:
     ff4:	ff010113          	addi	sp,sp,-16
     ff8:	00a12623          	sw	a0,12(sp)
     ffc:	00b12423          	sw	a1,8(sp)
    1000:	00c12783          	lw	a5,12(sp)
    1004:	00812703          	lw	a4,8(sp)
    1008:	00e7a023          	sw	a4,0(a5)
    100c:	00000013          	nop
    1010:	01010113          	addi	sp,sp,16
    1014:	00008067          	ret

00001018 <csr_vp_t::csr_vp_t(unsigned long*)>:
    1018:	fd010113          	addi	sp,sp,-48
    101c:	02112623          	sw	ra,44(sp)
    1020:	02812423          	sw	s0,40(sp)
    1024:	00a12623          	sw	a0,12(sp)
    1028:	00b12423          	sw	a1,8(sp)
    102c:	00800513          	li	a0,8
    1030:	e60ff0ef          	jal	690 <operator new(unsigned int)>
    1034:	00050793          	mv	a5,a0
    1038:	00078413          	mv	s0,a5
    103c:	00812583          	lw	a1,8(sp)
    1040:	00040513          	mv	a0,s0
    1044:	c25ff0ef          	jal	c68 <csr__cpu_fifo_vp_t::csr__cpu_fifo_vp_t(unsigned long*)>
    1048:	00c12783          	lw	a5,12(sp)
    104c:	0087a023          	sw	s0,0(a5)
    1050:	01000513          	li	a0,16
    1054:	e3cff0ef          	jal	690 <operator new(unsigned int)>
    1058:	00050793          	mv	a5,a0
    105c:	00078413          	mv	s0,a5
    1060:	00812783          	lw	a5,8(sp)
    1064:	03878793          	addi	a5,a5,56
    1068:	00078593          	mv	a1,a5
    106c:	00040513          	mv	a0,s0
    1070:	d01ff0ef          	jal	d70 <csr__uart_vp_t::csr__uart_vp_t(unsigned long*)>
    1074:	00c12783          	lw	a5,12(sp)
    1078:	0087a223          	sw	s0,4(a5)
    107c:	00400513          	li	a0,4
    1080:	e10ff0ef          	jal	690 <operator new(unsigned int)>
    1084:	00050793          	mv	a5,a0
    1088:	00078413          	mv	s0,a5
    108c:	00812783          	lw	a5,8(sp)
    1090:	04878793          	addi	a5,a5,72
    1094:	00078593          	mv	a1,a5
    1098:	00040513          	mv	a0,s0
    109c:	da5ff0ef          	jal	e40 <csr__gpio_vp_t::csr__gpio_vp_t(unsigned long*)>
    10a0:	00c12783          	lw	a5,12(sp)
    10a4:	0087a423          	sw	s0,8(a5)
    10a8:	00012e23          	sw	zero,28(sp)
    10ac:	0540006f          	j	1100 <csr_vp_t::csr_vp_t(unsigned long*)+0xe8>
    10b0:	00400513          	li	a0,4
    10b4:	ddcff0ef          	jal	690 <operator new(unsigned int)>
    10b8:	00050793          	mv	a5,a0
    10bc:	00078413          	mv	s0,a5
    10c0:	01c12783          	lw	a5,28(sp)
    10c4:	01378793          	addi	a5,a5,19
    10c8:	00279793          	slli	a5,a5,0x2
    10cc:	00812703          	lw	a4,8(sp)
    10d0:	00f707b3          	add	a5,a4,a5
    10d4:	00078593          	mv	a1,a5
    10d8:	00040513          	mv	a0,s0
    10dc:	e5dff0ef          	jal	f38 <csr__ethernet_vp_t::csr__ethernet_vp_t(unsigned long*)>
    10e0:	00c12703          	lw	a4,12(sp)
    10e4:	01c12783          	lw	a5,28(sp)
    10e8:	00279793          	slli	a5,a5,0x2
    10ec:	00f707b3          	add	a5,a4,a5
    10f0:	0087a623          	sw	s0,12(a5)
    10f4:	01c12783          	lw	a5,28(sp)
    10f8:	00178793          	addi	a5,a5,1
    10fc:	00f12e23          	sw	a5,28(sp)
    1100:	01c12703          	lw	a4,28(sp)
    1104:	00300793          	li	a5,3
    1108:	fae7d4e3          	bge	a5,a4,10b0 <csr_vp_t::csr_vp_t(unsigned long*)+0x98>
    110c:	00400513          	li	a0,4
    1110:	d80ff0ef          	jal	690 <operator new(unsigned int)>
    1114:	00050793          	mv	a5,a0
    1118:	00078413          	mv	s0,a5
    111c:	00812783          	lw	a5,8(sp)
    1120:	05c78793          	addi	a5,a5,92
    1124:	00078593          	mv	a1,a5
    1128:	00040513          	mv	a0,s0
    112c:	e7dff0ef          	jal	fa8 <csr__dpe_vp_t::csr__dpe_vp_t(unsigned long*)>
    1130:	00c12783          	lw	a5,12(sp)
    1134:	0087ae23          	sw	s0,28(a5)
    1138:	00400513          	li	a0,4
    113c:	d54ff0ef          	jal	690 <operator new(unsigned int)>
    1140:	00050793          	mv	a5,a0
    1144:	00078413          	mv	s0,a5
    1148:	00812783          	lw	a5,8(sp)
    114c:	06078793          	addi	a5,a5,96
    1150:	00078593          	mv	a1,a5
    1154:	00040513          	mv	a0,s0
    1158:	e9dff0ef          	jal	ff4 <csr__hwid_vp_t::csr__hwid_vp_t(unsigned long*)>
    115c:	00c12783          	lw	a5,12(sp)
    1160:	0287a023          	sw	s0,32(a5)
    1164:	00000013          	nop
    1168:	02c12083          	lw	ra,44(sp)
    116c:	02812403          	lw	s0,40(sp)
    1170:	03010113          	addi	sp,sp,48
    1174:	00008067          	ret
    1178:	3130                	.insn	2, 0x3130
    117a:	3332                	.insn	2, 0x3332
    117c:	3534                	.insn	2, 0x3534
    117e:	3736                	.insn	2, 0x3736
    1180:	3938                	.insn	2, 0x3938
    1182:	4241                	.insn	2, 0x4241
    1184:	46454443          	.insn	4, 0x46454443
    1188:	0000                	.insn	2, 0x
    118a:	0000                	.insn	2, 0x
    118c:	694d                	.insn	2, 0x694d
    118e:	7320                	.insn	2, 0x7320
    1190:	6f6d                	.insn	2, 0x6f6d
    1192:	4620                	.insn	2, 0x4620
    1194:	4750                	.insn	2, 0x4750
    1196:	2041                	.insn	2, 0x2041
    1198:	6172                	.insn	2, 0x6172
    119a:	616a                	.insn	2, 0x616a
    119c:	0a0d                	.insn	2, 0x0a0d
    119e:	0000                	.insn	2, 0x
    11a0:	0a0d                	.insn	2, 0x0a0d
    11a2:	530a                	.insn	2, 0x530a
    11a4:	6c65                	.insn	2, 0x6c65
    11a6:	6d61                	.insn	2, 0x6d61
    11a8:	6520                	.insn	2, 0x6520
    11aa:	7564                	.insn	2, 0x7564
    11ac:	20434f53          	.insn	4, 0x20434f53
    11b0:	6148                	.insn	2, 0x6148
    11b2:	72656b63          	bltu	a0,t1,18e8 <_idata_start+0x66c>
    11b6:	0a0d2173          	.insn	4, 0x0a0d2173
    11ba:	0000                	.insn	2, 0x
    11bc:	7254                	.insn	2, 0x7254
    11be:	2079                	.insn	2, 0x2079
    11c0:	73657567          	.insn	4, 0x73657567
    11c4:	676e6973          	.insn	4, 0x676e6973
    11c8:	3320                	.insn	2, 0x3320
    11ca:	7420                	.insn	2, 0x7420
    11cc:	6d69                	.insn	2, 0x6d69
    11ce:	7365                	.insn	2, 0x7365
    11d0:	7720                	.insn	2, 0x7720
    11d2:	6168                	.insn	2, 0x6168
    11d4:	2074                	.insn	2, 0x2074
    11d6:	2749                	.insn	2, 0x2749
    11d8:	206d                	.insn	2, 0x206d
    11da:	6874                	.insn	2, 0x6874
    11dc:	6e69                	.insn	2, 0x6e69
    11de:	676e696b          	.insn	4, 0x676e696b
    11e2:	202c                	.insn	2, 0x202c
    11e4:	6874                	.insn	2, 0x6874
    11e6:	6e65                	.insn	2, 0x6e65
    11e8:	7020                	.insn	2, 0x7020
    11ea:	6572                	.insn	2, 0x6572
    11ec:	3c207373          	.insn	4, 0x3c207373
    11f0:	4e45                	.insn	2, 0x4e45
    11f2:	4554                	.insn	2, 0x4554
    11f4:	3e52                	.insn	2, 0x3e52
    11f6:	0d2e                	.insn	2, 0x0d2e
    11f8:	000a                	.insn	2, 0x000a
    11fa:	0000                	.insn	2, 0x
    11fc:	0a0d                	.insn	2, 0x0a0d
    11fe:	090a                	.insn	2, 0x090a
    1200:	6f59                	.insn	2, 0x6f59
    1202:	2075                	.insn	2, 0x2075
    1204:	6e65                	.insn	2, 0x6e65
    1206:	6574                	.insn	2, 0x6574
    1208:	6572                	.insn	2, 0x6572
    120a:	3a64                	.insn	2, 0x3a64
    120c:	0020                	.insn	2, 0x0020
    120e:	0000                	.insn	2, 0x
    1210:	0a0d                	.insn	2, 0x0a0d
    1212:	7c09                	.insn	2, 0x7c09
    1214:	5920                	.insn	2, 0x5920
    1216:	6820756f          	jal	a0,8898 <_idata_start+0x761c>
    121a:	7469                	.insn	2, 0x7469
    121c:	6920                	.insn	2, 0x6920
    121e:	2174                	.insn	2, 0x2174
    1220:	3a20                	.insn	2, 0x3a20
    1222:	292d                	.insn	2, 0x292d
    1224:	0a0d                	.insn	2, 0x0a0d
    1226:	0000                	.insn	2, 0x
    1228:	0a0d                	.insn	2, 0x0a0d
    122a:	7c09                	.insn	2, 0x7c09
    122c:	5320                	.insn	2, 0x5320
    122e:	7972726f          	jal	tp,291c4 <_idata_start+0x27f48>
    1232:	202c                	.insn	2, 0x202c
    1234:	6f79                	.insn	2, 0x6f79
    1236:	2075                	.insn	2, 0x2075
    1238:	696d                	.insn	2, 0x696d
    123a:	64657373          	.insn	4, 0x64657373
    123e:	6920                	.insn	2, 0x6920
    1240:	2e74                	.insn	2, 0x2e74
    1242:	0000                	.insn	2, 0x
    1244:	0a0d                	.insn	2, 0x0a0d
    1246:	7c09                	.insn	2, 0x7c09
    1248:	2e20                	.insn	2, 0x2e20
    124a:	2e2e                	.insn	2, 0x2e2e
    124c:	7254                	.insn	2, 0x7254
    124e:	2079                	.insn	2, 0x2079
    1250:	6761                	.insn	2, 0x6761
    1252:	6961                	.insn	2, 0x6961
    1254:	2e6e                	.insn	2, 0x2e6e
    1256:	4320                	.insn	2, 0x4320
    1258:	6572                	.insn	2, 0x6572
    125a:	6964                	.insn	2, 0x6964
    125c:	2074                	.insn	2, 0x2074
    125e:	656c                	.insn	2, 0x656c
    1260:	7466                	.insn	2, 0x7466
    1262:	203a                	.insn	2, 0x203a
    1264:	0000                	.insn	2, 0x
    1266:	0000                	.insn	2, 0x
    1268:	0a0d                	.insn	2, 0x0a0d
    126a:	0a0a                	.insn	2, 0x0a0a
    126c:	0000                	.insn	2, 0x
    126e:	0000                	.insn	2, 0x
    1270:	0a0d                	.insn	2, 0x0a0d
    1272:	4f44                	.insn	2, 0x4f44
    1274:	454e                	.insn	2, 0x454e
    1276:	0d21                	.insn	2, 0x0d21
    1278:	000a                	.insn	2, 0x000a
	...
