
/home/enio/Projects/ChiliChips/wireguard-fpga/3.build/sw_build/main.elf:     file format elf32-littleriscv


Disassembly of section .text:

00000000 <_boot_crt>:
   0:	00000517          	auipc	a0,0x0
   4:	7a850513          	addi	a0,a0,1960 # 7a8 <_idata_start>
   8:	10000597          	auipc	a1,0x10000
   c:	ff858593          	addi	a1,a1,-8 # 10000000 <packet>
  10:	10000617          	auipc	a2,0x10000
  14:	ff060613          	addi	a2,a2,-16 # 10000000 <packet>
  18:	00c5dc63          	bge	a1,a2,30 <end_copy_idata>

0000001c <loop_copy_idata>:
  1c:	00052683          	lw	a3,0(a0)
  20:	00d5a023          	sw	a3,0(a1)
  24:	00450513          	addi	a0,a0,4
  28:	00458593          	addi	a1,a1,4
  2c:	fec5c8e3          	blt	a1,a2,1c <loop_copy_idata>

00000030 <end_copy_idata>:
  30:	10000517          	auipc	a0,0x10000
  34:	fd050513          	addi	a0,a0,-48 # 10000000 <packet>
  38:	60c18593          	addi	a1,gp,1548 # 10000e0c <_bss_end>
  3c:	00b55863          	bge	a0,a1,4c <end_clear_bss>

00000040 <loop_clear_bss>:
  40:	00052023          	sw	zero,0(a0)
  44:	00450513          	addi	a0,a0,4
  48:	feb54ce3          	blt	a0,a1,40 <loop_clear_bss>

0000004c <end_clear_bss>:
  4c:	10008117          	auipc	sp,0x10008
  50:	fb410113          	addi	sp,sp,-76 # 10008000 <_stack_start>
  54:	10000197          	auipc	gp,0x10000
  58:	7ac18193          	addi	gp,gp,1964 # 10000800 <__global_pointer$>
  5c:	00a54533          	xor	a0,a0,a0
  60:	00b5c5b3          	xor	a1,a1,a1
  64:	00c64633          	xor	a2,a2,a2
  68:	2a0000ef          	jal	308 <main>

0000006c <loop_forever>:
  6c:	0000006f          	j	6c <loop_forever>

00000070 <malloc>:
  70:	6081a703          	lw	a4,1544(gp) # 10000e08 <heap_memory_used>
  74:	100007b7          	lui	a5,0x10000
  78:	60878793          	addi	a5,a5,1544 # 10000608 <heap_memory>
  7c:	00f707b3          	add	a5,a4,a5
  80:	00a70733          	add	a4,a4,a0
  84:	60e1a423          	sw	a4,1544(gp) # 10000e08 <heap_memory_used>
  88:	000016b7          	lui	a3,0x1
  8c:	80068693          	addi	a3,a3,-2048 # 800 <_idata_start+0x58>
  90:	00e6d463          	bge	a3,a4,98 <malloc+0x28>
  94:	00100073          	ebreak
  98:	00078513          	mv	a0,a5
  9c:	00008067          	ret

000000a0 <eth_send_packet.constprop.0.isra.0>:
  a0:	00052783          	lw	a5,0(a0)
  a4:	0007a783          	lw	a5,0(a5)
  a8:	0187a783          	lw	a5,24(a5)
  ac:	0007a783          	lw	a5,0(a5)
  b0:	0007a783          	lw	a5,0(a5)
  b4:	0017f793          	andi	a5,a5,1
  b8:	20078463          	beqz	a5,2c0 <_STACK_SIZE+0xc0>
  bc:	00052783          	lw	a5,0(a0)
  c0:	100006b7          	lui	a3,0x10000
  c4:	00068613          	mv	a2,a3
  c8:	0007a783          	lw	a5,0(a5)
  cc:	00064703          	lbu	a4,0(a2)
  d0:	ffff08b7          	lui	a7,0xffff0
  d4:	0107a783          	lw	a5,16(a5)
  d8:	00777713          	andi	a4,a4,7
  dc:	0007a583          	lw	a1,0(a5)
  e0:	0005a783          	lw	a5,0(a1)
  e4:	ff87f793          	andi	a5,a5,-8
  e8:	00e7e7b3          	or	a5,a5,a4
  ec:	00f5a023          	sw	a5,0(a1)
  f0:	00052783          	lw	a5,0(a0)
  f4:	00164703          	lbu	a4,1(a2)
  f8:	0007a783          	lw	a5,0(a5)
  fc:	00777713          	andi	a4,a4,7
 100:	00371713          	slli	a4,a4,0x3
 104:	0107a783          	lw	a5,16(a5)
 108:	0007a583          	lw	a1,0(a5)
 10c:	0005a783          	lw	a5,0(a1)
 110:	fc77f793          	andi	a5,a5,-57
 114:	00e7e7b3          	or	a5,a5,a4
 118:	00f5a023          	sw	a5,0(a1)
 11c:	00052783          	lw	a5,0(a0)
 120:	00264703          	lbu	a4,2(a2)
 124:	0007a783          	lw	a5,0(a5)
 128:	00177713          	andi	a4,a4,1
 12c:	00671713          	slli	a4,a4,0x6
 130:	0107a783          	lw	a5,16(a5)
 134:	0007a583          	lw	a1,0(a5)
 138:	0005a783          	lw	a5,0(a1)
 13c:	fbf7f793          	andi	a5,a5,-65
 140:	00e7e7b3          	or	a5,a5,a4
 144:	00f5a023          	sw	a5,0(a1)
 148:	00052783          	lw	a5,0(a0)
 14c:	00364703          	lbu	a4,3(a2)
 150:	0007a783          	lw	a5,0(a5)
 154:	00177713          	andi	a4,a4,1
 158:	00771713          	slli	a4,a4,0x7
 15c:	0107a783          	lw	a5,16(a5)
 160:	0007a583          	lw	a1,0(a5)
 164:	0005a783          	lw	a5,0(a1)
 168:	f7f7f793          	andi	a5,a5,-129
 16c:	00e7e7b3          	or	a5,a5,a4
 170:	00f5a023          	sw	a5,0(a1)
 174:	ffff85b7          	lui	a1,0xffff8
 178:	00068713          	mv	a4,a3
 17c:	00000793          	li	a5,0
 180:	00068693          	mv	a3,a3
 184:	fff58593          	addi	a1,a1,-1 # ffff7fff <_stack_start+0xeffeffff>
 188:	00052603          	lw	a2,0(a0)
 18c:	00872803          	lw	a6,8(a4)
 190:	01078793          	addi	a5,a5,16
 194:	00062603          	lw	a2,0(a2)
 198:	01070713          	addi	a4,a4,16
 19c:	00062603          	lw	a2,0(a2)
 1a0:	00062603          	lw	a2,0(a2)
 1a4:	01062023          	sw	a6,0(a2)
 1a8:	00052603          	lw	a2,0(a0)
 1ac:	ffc72803          	lw	a6,-4(a4)
 1b0:	00062603          	lw	a2,0(a2)
 1b4:	00462603          	lw	a2,4(a2)
 1b8:	00062603          	lw	a2,0(a2)
 1bc:	01062023          	sw	a6,0(a2)
 1c0:	00052603          	lw	a2,0(a0)
 1c4:	00072803          	lw	a6,0(a4)
 1c8:	00062603          	lw	a2,0(a2)
 1cc:	00862603          	lw	a2,8(a2)
 1d0:	00062603          	lw	a2,0(a2)
 1d4:	01062023          	sw	a6,0(a2)
 1d8:	00052603          	lw	a2,0(a0)
 1dc:	00472803          	lw	a6,4(a4)
 1e0:	00062603          	lw	a2,0(a2)
 1e4:	00c62603          	lw	a2,12(a2)
 1e8:	00062603          	lw	a2,0(a2)
 1ec:	01062023          	sw	a6,0(a2)
 1f0:	0046a803          	lw	a6,4(a3) # 10000004 <packet+0x4>
 1f4:	0507fe63          	bgeu	a5,a6,250 <_STACK_SIZE+0x50>
 1f8:	00052603          	lw	a2,0(a0)
 1fc:	00062603          	lw	a2,0(a2)
 200:	01062603          	lw	a2,16(a2)
 204:	00062803          	lw	a6,0(a2)
 208:	00082603          	lw	a2,0(a6)
 20c:	01166633          	or	a2,a2,a7
 210:	00c82023          	sw	a2,0(a6)
 214:	00052603          	lw	a2,0(a0)
 218:	00062603          	lw	a2,0(a2)
 21c:	01062603          	lw	a2,16(a2)
 220:	00062803          	lw	a6,0(a2)
 224:	00082603          	lw	a2,0(a6)
 228:	00b67633          	and	a2,a2,a1
 22c:	00c82023          	sw	a2,0(a6)
 230:	00052603          	lw	a2,0(a0)
 234:	00062603          	lw	a2,0(a2)
 238:	01462603          	lw	a2,20(a2)
 23c:	00062803          	lw	a6,0(a2)
 240:	00082603          	lw	a2,0(a6)
 244:	00166613          	ori	a2,a2,1
 248:	00c82023          	sw	a2,0(a6)
 24c:	f3dff06f          	j	188 <eth_send_packet.constprop.0.isra.0+0xe8>
 250:	00052703          	lw	a4,0(a0)
 254:	000106b7          	lui	a3,0x10
 258:	fff68693          	addi	a3,a3,-1 # ffff <_idata_start+0xf857>
 25c:	00072703          	lw	a4,0(a4)
 260:	410787b3          	sub	a5,a5,a6
 264:	40f6d7b3          	sra	a5,a3,a5
 268:	01072703          	lw	a4,16(a4)
 26c:	01079793          	slli	a5,a5,0x10
 270:	00072603          	lw	a2,0(a4)
 274:	00062703          	lw	a4,0(a2)
 278:	00d77733          	and	a4,a4,a3
 27c:	00f767b3          	or	a5,a4,a5
 280:	00f62023          	sw	a5,0(a2)
 284:	00052783          	lw	a5,0(a0)
 288:	000086b7          	lui	a3,0x8
 28c:	0007a783          	lw	a5,0(a5)
 290:	0107a783          	lw	a5,16(a5)
 294:	0007a703          	lw	a4,0(a5)
 298:	00072783          	lw	a5,0(a4)
 29c:	00d7e7b3          	or	a5,a5,a3
 2a0:	00f72023          	sw	a5,0(a4)
 2a4:	00052783          	lw	a5,0(a0)
 2a8:	0007a783          	lw	a5,0(a5)
 2ac:	0147a783          	lw	a5,20(a5)
 2b0:	0007a703          	lw	a4,0(a5)
 2b4:	00072783          	lw	a5,0(a4)
 2b8:	0017e793          	ori	a5,a5,1
 2bc:	00f72023          	sw	a5,0(a4)
 2c0:	00008067          	ret

000002c4 <memset>:
 2c4:	0ff5f593          	zext.b	a1,a1
 2c8:	00000793          	li	a5,0
 2cc:	00c79463          	bne	a5,a2,2d4 <memset+0x10>
 2d0:	00008067          	ret
 2d4:	00f50733          	add	a4,a0,a5
 2d8:	00b70023          	sb	a1,0(a4)
 2dc:	00178793          	addi	a5,a5,1
 2e0:	fedff06f          	j	2cc <memset+0x8>

000002e4 <memcpy>:
 2e4:	00000793          	li	a5,0
 2e8:	00c79463          	bne	a5,a2,2f0 <memcpy+0xc>
 2ec:	00008067          	ret
 2f0:	00f58733          	add	a4,a1,a5
 2f4:	00074683          	lbu	a3,0(a4)
 2f8:	00f50733          	add	a4,a0,a5
 2fc:	00178793          	addi	a5,a5,1
 300:	00d70023          	sb	a3,0(a4)
 304:	fe5ff06f          	j	2e8 <memcpy+0x4>

00000308 <main>:
 308:	fe010113          	addi	sp,sp,-32
 30c:	02800513          	li	a0,40
 310:	00112e23          	sw	ra,28(sp)
 314:	00812c23          	sw	s0,24(sp)
 318:	00912a23          	sw	s1,20(sp)
 31c:	01212823          	sw	s2,16(sp)
 320:	01312623          	sw	s3,12(sp)
 324:	01412423          	sw	s4,8(sp)
 328:	01512223          	sw	s5,4(sp)
 32c:	d45ff0ef          	jal	70 <malloc>
 330:	00050413          	mv	s0,a0
 334:	00800513          	li	a0,8
 338:	d39ff0ef          	jal	70 <malloc>
 33c:	00050913          	mv	s2,a0
 340:	01c00513          	li	a0,28
 344:	d2dff0ef          	jal	70 <malloc>
 348:	00050493          	mv	s1,a0
 34c:	00400513          	li	a0,4
 350:	d21ff0ef          	jal	70 <malloc>
 354:	200007b7          	lui	a5,0x20000
 358:	00f52023          	sw	a5,0(a0)
 35c:	00a4a023          	sw	a0,0(s1)
 360:	00400513          	li	a0,4
 364:	d0dff0ef          	jal	70 <malloc>
 368:	200007b7          	lui	a5,0x20000
 36c:	00478793          	addi	a5,a5,4 # 20000004 <_stack_start+0xfff8004>
 370:	00f52023          	sw	a5,0(a0)
 374:	00a4a223          	sw	a0,4(s1)
 378:	00400513          	li	a0,4
 37c:	cf5ff0ef          	jal	70 <malloc>
 380:	200007b7          	lui	a5,0x20000
 384:	00878793          	addi	a5,a5,8 # 20000008 <_stack_start+0xfff8008>
 388:	00f52023          	sw	a5,0(a0)
 38c:	00a4a423          	sw	a0,8(s1)
 390:	00400513          	li	a0,4
 394:	cddff0ef          	jal	70 <malloc>
 398:	200007b7          	lui	a5,0x20000
 39c:	00c78793          	addi	a5,a5,12 # 2000000c <_stack_start+0xfff800c>
 3a0:	00f52023          	sw	a5,0(a0)
 3a4:	00a4a623          	sw	a0,12(s1)
 3a8:	00400513          	li	a0,4
 3ac:	cc5ff0ef          	jal	70 <malloc>
 3b0:	200007b7          	lui	a5,0x20000
 3b4:	01078793          	addi	a5,a5,16 # 20000010 <_stack_start+0xfff8010>
 3b8:	00f52023          	sw	a5,0(a0)
 3bc:	00a4a823          	sw	a0,16(s1)
 3c0:	00400513          	li	a0,4
 3c4:	cadff0ef          	jal	70 <malloc>
 3c8:	200007b7          	lui	a5,0x20000
 3cc:	01478793          	addi	a5,a5,20 # 20000014 <_stack_start+0xfff8014>
 3d0:	00f52023          	sw	a5,0(a0)
 3d4:	00a4aa23          	sw	a0,20(s1)
 3d8:	00400513          	li	a0,4
 3dc:	c95ff0ef          	jal	70 <malloc>
 3e0:	200007b7          	lui	a5,0x20000
 3e4:	01878793          	addi	a5,a5,24 # 20000018 <_stack_start+0xfff8018>
 3e8:	00f52023          	sw	a5,0(a0)
 3ec:	00a4ac23          	sw	a0,24(s1)
 3f0:	00992023          	sw	s1,0(s2)
 3f4:	01c00513          	li	a0,28
 3f8:	c79ff0ef          	jal	70 <malloc>
 3fc:	00050493          	mv	s1,a0
 400:	00400513          	li	a0,4
 404:	c6dff0ef          	jal	70 <malloc>
 408:	200007b7          	lui	a5,0x20000
 40c:	01c78793          	addi	a5,a5,28 # 2000001c <_stack_start+0xfff801c>
 410:	00f52023          	sw	a5,0(a0)
 414:	00a4a023          	sw	a0,0(s1)
 418:	00400513          	li	a0,4
 41c:	c55ff0ef          	jal	70 <malloc>
 420:	200007b7          	lui	a5,0x20000
 424:	02078793          	addi	a5,a5,32 # 20000020 <_stack_start+0xfff8020>
 428:	00f52023          	sw	a5,0(a0)
 42c:	00a4a223          	sw	a0,4(s1)
 430:	00400513          	li	a0,4
 434:	c3dff0ef          	jal	70 <malloc>
 438:	200007b7          	lui	a5,0x20000
 43c:	02478793          	addi	a5,a5,36 # 20000024 <_stack_start+0xfff8024>
 440:	00f52023          	sw	a5,0(a0)
 444:	00a4a423          	sw	a0,8(s1)
 448:	00400513          	li	a0,4
 44c:	c25ff0ef          	jal	70 <malloc>
 450:	200007b7          	lui	a5,0x20000
 454:	02878793          	addi	a5,a5,40 # 20000028 <_stack_start+0xfff8028>
 458:	00f52023          	sw	a5,0(a0)
 45c:	00a4a623          	sw	a0,12(s1)
 460:	00400513          	li	a0,4
 464:	c0dff0ef          	jal	70 <malloc>
 468:	200007b7          	lui	a5,0x20000
 46c:	02c78793          	addi	a5,a5,44 # 2000002c <_stack_start+0xfff802c>
 470:	00f52023          	sw	a5,0(a0)
 474:	00a4a823          	sw	a0,16(s1)
 478:	00400513          	li	a0,4
 47c:	bf5ff0ef          	jal	70 <malloc>
 480:	200007b7          	lui	a5,0x20000
 484:	03078793          	addi	a5,a5,48 # 20000030 <_stack_start+0xfff8030>
 488:	00f52023          	sw	a5,0(a0)
 48c:	00a4aa23          	sw	a0,20(s1)
 490:	00400513          	li	a0,4
 494:	bddff0ef          	jal	70 <malloc>
 498:	200007b7          	lui	a5,0x20000
 49c:	03478793          	addi	a5,a5,52 # 20000034 <_stack_start+0xfff8034>
 4a0:	00f52023          	sw	a5,0(a0)
 4a4:	00a4ac23          	sw	a0,24(s1)
 4a8:	00992223          	sw	s1,4(s2)
 4ac:	01242023          	sw	s2,0(s0)
 4b0:	01000513          	li	a0,16
 4b4:	bbdff0ef          	jal	70 <malloc>
 4b8:	00050493          	mv	s1,a0
 4bc:	00400513          	li	a0,4
 4c0:	bb1ff0ef          	jal	70 <malloc>
 4c4:	200007b7          	lui	a5,0x20000
 4c8:	03878793          	addi	a5,a5,56 # 20000038 <_stack_start+0xfff8038>
 4cc:	00f52023          	sw	a5,0(a0)
 4d0:	00a4a023          	sw	a0,0(s1)
 4d4:	00400513          	li	a0,4
 4d8:	b99ff0ef          	jal	70 <malloc>
 4dc:	200007b7          	lui	a5,0x20000
 4e0:	03c78793          	addi	a5,a5,60 # 2000003c <_stack_start+0xfff803c>
 4e4:	00f52023          	sw	a5,0(a0)
 4e8:	00a4a223          	sw	a0,4(s1)
 4ec:	00400513          	li	a0,4
 4f0:	b81ff0ef          	jal	70 <malloc>
 4f4:	200007b7          	lui	a5,0x20000
 4f8:	04078793          	addi	a5,a5,64 # 20000040 <_stack_start+0xfff8040>
 4fc:	00f52023          	sw	a5,0(a0)
 500:	00a4a423          	sw	a0,8(s1)
 504:	00400513          	li	a0,4
 508:	b69ff0ef          	jal	70 <malloc>
 50c:	200007b7          	lui	a5,0x20000
 510:	04478793          	addi	a5,a5,68 # 20000044 <_stack_start+0xfff8044>
 514:	00f52023          	sw	a5,0(a0)
 518:	00a4a623          	sw	a0,12(s1)
 51c:	00942223          	sw	s1,4(s0)
 520:	00400513          	li	a0,4
 524:	b4dff0ef          	jal	70 <malloc>
 528:	200007b7          	lui	a5,0x20000
 52c:	04878793          	addi	a5,a5,72 # 20000048 <_stack_start+0xfff8048>
 530:	00f52023          	sw	a5,0(a0)
 534:	200004b7          	lui	s1,0x20000
 538:	200009b7          	lui	s3,0x20000
 53c:	00a42423          	sw	a0,8(s0)
 540:	00c40a13          	addi	s4,s0,12
 544:	04c48493          	addi	s1,s1,76 # 2000004c <_stack_start+0xfff804c>
 548:	07c98993          	addi	s3,s3,124 # 2000007c <_stack_start+0xfff807c>
 54c:	00c00513          	li	a0,12
 550:	b21ff0ef          	jal	70 <malloc>
 554:	00050913          	mv	s2,a0
 558:	00400513          	li	a0,4
 55c:	b15ff0ef          	jal	70 <malloc>
 560:	00952023          	sw	s1,0(a0)
 564:	00a92023          	sw	a0,0(s2)
 568:	00400513          	li	a0,4
 56c:	b05ff0ef          	jal	70 <malloc>
 570:	00448793          	addi	a5,s1,4
 574:	00f52023          	sw	a5,0(a0)
 578:	00a92223          	sw	a0,4(s2)
 57c:	00400513          	li	a0,4
 580:	af1ff0ef          	jal	70 <malloc>
 584:	00848793          	addi	a5,s1,8
 588:	00f52023          	sw	a5,0(a0)
 58c:	00a92423          	sw	a0,8(s2)
 590:	012a2023          	sw	s2,0(s4)
 594:	00c48493          	addi	s1,s1,12
 598:	004a0a13          	addi	s4,s4,4
 59c:	fb3498e3          	bne	s1,s3,54c <_HEAP_SIZE+0x14c>
 5a0:	00400513          	li	a0,4
 5a4:	acdff0ef          	jal	70 <malloc>
 5a8:	00050913          	mv	s2,a0
 5ac:	00400513          	li	a0,4
 5b0:	ac1ff0ef          	jal	70 <malloc>
 5b4:	00952023          	sw	s1,0(a0)
 5b8:	00a92023          	sw	a0,0(s2)
 5bc:	01242e23          	sw	s2,28(s0)
 5c0:	00400513          	li	a0,4
 5c4:	aadff0ef          	jal	70 <malloc>
 5c8:	200007b7          	lui	a5,0x20000
 5cc:	08078793          	addi	a5,a5,128 # 20000080 <_stack_start+0xfff8080>
 5d0:	00f52023          	sw	a5,0(a0)
 5d4:	02a42023          	sw	a0,32(s0)
 5d8:	00400513          	li	a0,4
 5dc:	a95ff0ef          	jal	70 <malloc>
 5e0:	200007b7          	lui	a5,0x20000
 5e4:	08478793          	addi	a5,a5,132 # 20000084 <_stack_start+0xfff8084>
 5e8:	00f52023          	sw	a5,0(a0)
 5ec:	100004b7          	lui	s1,0x10000
 5f0:	02a42223          	sw	a0,36(s0)
 5f4:	00048493          	mv	s1,s1
 5f8:	5f000993          	li	s3,1520
 5fc:	60000a13          	li	s4,1536
 600:	00100a93          	li	s5,1
 604:	00200913          	li	s2,2
 608:	00048023          	sb	zero,0(s1) # 10000000 <packet>
 60c:	00049123          	sh	zero,2(s1)
 610:	00042783          	lw	a5,0(s0)
 614:	0047a783          	lw	a5,4(a5)
 618:	0187a783          	lw	a5,24(a5)
 61c:	0007a783          	lw	a5,0(a5)
 620:	0007a783          	lw	a5,0(a5)
 624:	0017f793          	andi	a5,a5,1
 628:	0e078e63          	beqz	a5,724 <_HEAP_SIZE+0x324>
 62c:	00042783          	lw	a5,0(s0)
 630:	00048713          	mv	a4,s1
 634:	0047a783          	lw	a5,4(a5)
 638:	0107a783          	lw	a5,16(a5)
 63c:	0007a783          	lw	a5,0(a5)
 640:	0007a783          	lw	a5,0(a5)
 644:	0037d793          	srli	a5,a5,0x3
 648:	0077f793          	andi	a5,a5,7
 64c:	00f480a3          	sb	a5,1(s1)
 650:	00000793          	li	a5,0
 654:	06f9e263          	bltu	s3,a5,6b8 <_HEAP_SIZE+0x2b8>
 658:	00042683          	lw	a3,0(s0)
 65c:	0046a683          	lw	a3,4(a3) # 8004 <_idata_start+0x785c>
 660:	0006a683          	lw	a3,0(a3)
 664:	0006a683          	lw	a3,0(a3)
 668:	0006a683          	lw	a3,0(a3)
 66c:	00d72423          	sw	a3,8(a4)
 670:	00042683          	lw	a3,0(s0)
 674:	0046a683          	lw	a3,4(a3)
 678:	0046a683          	lw	a3,4(a3)
 67c:	0006a683          	lw	a3,0(a3)
 680:	0006a683          	lw	a3,0(a3)
 684:	00d72623          	sw	a3,12(a4)
 688:	00042683          	lw	a3,0(s0)
 68c:	0046a683          	lw	a3,4(a3)
 690:	0086a683          	lw	a3,8(a3)
 694:	0006a683          	lw	a3,0(a3)
 698:	0006a683          	lw	a3,0(a3)
 69c:	00d72823          	sw	a3,16(a4)
 6a0:	00042683          	lw	a3,0(s0)
 6a4:	0046a683          	lw	a3,4(a3)
 6a8:	00c6a683          	lw	a3,12(a3)
 6ac:	0006a683          	lw	a3,0(a3)
 6b0:	0006a683          	lw	a3,0(a3)
 6b4:	00d72a23          	sw	a3,20(a4)
 6b8:	00042683          	lw	a3,0(s0)
 6bc:	01070713          	addi	a4,a4,16
 6c0:	0046a683          	lw	a3,4(a3)
 6c4:	0106a683          	lw	a3,16(a3)
 6c8:	0006a683          	lw	a3,0(a3)
 6cc:	0006a683          	lw	a3,0(a3)
 6d0:	01069613          	slli	a2,a3,0x10
 6d4:	06065a63          	bgez	a2,748 <_HEAP_SIZE+0x348>
 6d8:	00042703          	lw	a4,0(s0)
 6dc:	00472703          	lw	a4,4(a4)
 6e0:	01072703          	lw	a4,16(a4)
 6e4:	00072703          	lw	a4,0(a4)
 6e8:	00275703          	lhu	a4,2(a4)
 6ec:	00177693          	andi	a3,a4,1
 6f0:	04069663          	bnez	a3,73c <_HEAP_SIZE+0x33c>
 6f4:	00fa7463          	bgeu	s4,a5,6fc <_HEAP_SIZE+0x2fc>
 6f8:	60000793          	li	a5,1536
 6fc:	00f4a223          	sw	a5,4(s1)
 700:	00042783          	lw	a5,0(s0)
 704:	0047a783          	lw	a5,4(a5)
 708:	0147a783          	lw	a5,20(a5)
 70c:	0007a703          	lw	a4,0(a5)
 710:	00072783          	lw	a5,0(a4)
 714:	0017e793          	ori	a5,a5,1
 718:	00f72023          	sw	a5,0(a4)
 71c:	0044a783          	lw	a5,4(s1)
 720:	04079663          	bnez	a5,76c <_HEAP_SIZE+0x36c>
 724:	00842783          	lw	a5,8(s0)
 728:	0007a703          	lw	a4,0(a5)
 72c:	00072783          	lw	a5,0(a4)
 730:	dff7f793          	andi	a5,a5,-513
 734:	00f72023          	sw	a5,0(a4)
 738:	ed1ff06f          	j	608 <_HEAP_SIZE+0x208>
 73c:	00178793          	addi	a5,a5,1
 740:	00175713          	srli	a4,a4,0x1
 744:	fa9ff06f          	j	6ec <_HEAP_SIZE+0x2ec>
 748:	00042683          	lw	a3,0(s0)
 74c:	01078793          	addi	a5,a5,16
 750:	0046a683          	lw	a3,4(a3)
 754:	0146a683          	lw	a3,20(a3)
 758:	0006a603          	lw	a2,0(a3)
 75c:	00062683          	lw	a3,0(a2)
 760:	0016e693          	ori	a3,a3,1
 764:	00d62023          	sw	a3,0(a2)
 768:	eedff06f          	j	654 <_HEAP_SIZE+0x254>
 76c:	00842783          	lw	a5,8(s0)
 770:	0007a703          	lw	a4,0(a5)
 774:	00072783          	lw	a5,0(a4)
 778:	2007e793          	ori	a5,a5,512
 77c:	00f72023          	sw	a5,0(a4)
 780:	0014c783          	lbu	a5,1(s1)
 784:	01579c63          	bne	a5,s5,79c <_HEAP_SIZE+0x39c>
 788:	01248023          	sb	s2,0(s1)
 78c:	00040513          	mv	a0,s0
 790:	015481a3          	sb	s5,3(s1)
 794:	90dff0ef          	jal	a0 <eth_send_packet.constprop.0.isra.0>
 798:	e71ff06f          	j	608 <_HEAP_SIZE+0x208>
 79c:	e72796e3          	bne	a5,s2,608 <_HEAP_SIZE+0x208>
 7a0:	01548023          	sb	s5,0(s1)
 7a4:	fe9ff06f          	j	78c <_HEAP_SIZE+0x38c>
